(dp0
Vmediterranean_sea
p1
ccollections
defaultdict
p2
(c__builtin__
int
p3
tp4
Rp5
Vmountain
p6
I4
sVarctic_ocean
p7
I4
sVtyrrhenian_sea
p8
I4
sVadriatic_sea
p9
I8
sVblack_sea
p10
I2
sVisland
p11
I8
sVwater
p12
I6
sVsea
p13
I16
sVaegean_sea
p14
I6
ssVatmosphere
p15
g2
(g3
tp16
Rp17
Vatmosphere
p18
I1912
sVestuary
p19
I4
sVseal
p20
I20
sVenvironmental_monitoring
p21
I14
sVantarctica
p22
I4
sVsea
p23
I4
sVvolcanic_eruption
p24
I12
sVglobal_warming
p25
I4
sg6
I8
sVpolar_region
p26
I6
sVgreenhouse_effect
p27
I4
sVdesertification
p28
I4
sVlake
p29
I4
sVice
p30
I16
sVenvironment
p31
I12
sVflood
p32
I24
sVcyclone
p33
I4
sVgreenhouse_gas
p34
I12
sVacidification
p35
I4
sVbird
p36
I26
sVnoise
p37
I32
sVclimate_change
p38
I16
sVfire
p39
I2
sVarctic
p40
I2
sVbear
p41
I4
sVwater
p42
I10
sVinsect
p43
I16
sVdust
p44
I18
sVdrought
p45
I6
sVearthquake
p46
I8
sVpollutant
p47
I2
sVdeforestation
p48
I4
sVclimate
p49
I10
sVbiosphere
p50
I2
sVisland
p51
I16
sVocean
p52
I4
sVozone
p53
I8
sVwatercourse
p54
I6
sVplain
p55
I4
sVacid_rain
p56
I8
sVpollution
p57
I2
ssVwaste_incineration
p58
g2
(g3
tp59
Rp60
Vwaste
p61
I4
ssVestuary
p62
g2
(g3
tp63
Rp64
Vclimate
p65
I4
sVenvironment
p66
I14
sVwildlife
p67
I4
sVnature_reserve
p68
I8
sVclimate_change
p69
I12
sVmonkey
p70
I4
sVestuary
p71
I20
sVchemical_waste
p72
I4
sVlake
p73
I4
sVecosystem
p74
I14
sg42
I6
sVatmosphere
p75
I4
sVsea
p76
I4
sVisland
p77
I4
sVwater_pollution
p78
I4
sVwhale
p79
I4
sVfreshwater
p80
I4
sVbird
p81
I4
sVsurface_water
p82
I6
sg55
I6
ssVblack_sea
p83
g2
(g3
tp84
Rp85
Vnorth_sea
p86
I4
sVpollution
p87
I4
ssVdangerous_substance
p88
g2
(g3
tp89
Rp90
Vwater
p91
I12
sVfire
p92
I6
sVice
p93
I6
sVozone
p94
I6
sVpesticide_residue
p95
I4
sVdust
p96
I2
sVwaste
p97
I2
sVpollutant
p98
I20
ssVfire_protection
p99
g2
(g3
tp100
Rp101
Vfire
p102
I2
sVwater
p103
I8
sVfire_protection
p104
I6
ssVuse_of_water
p105
g2
(g3
tp106
Rp107
Vdrinking_water
p108
I4
sVwildlife
p109
I10
sVfire
p110
I4
sVfire_protection
p111
I8
sVuse_of_water
p112
I16
sg42
I16
sVflood
p113
I4
sVgroundwater
p114
I4
sg45
I4
sVwaste
p115
I4
ssVrodent
p116
g2
(g3
tp117
Rp118
Vrodent
p119
I48
sVreptile
p120
I10
sVmonkey
p121
I10
sg92
I12
sVarctic
p122
I4
sVwater
p123
I8
sg67
I4
sVbear
p124
I4
sVenvironment
p125
I8
sVinsect
p126
I16
sVwolf
p127
I4
sVsea
p128
I8
sVseal
p129
I12
sVnuisance
p130
I2
sVbird
p131
I48
sVmarsupial
p132
I8
ssVenvironmental_monitoring
p133
g2
(g3
tp134
Rp135
Vwater
p136
I4
sVwater_pollution
p137
I4
sVnoise
p138
I4
sVnoise_level
p139
I6
sVclimate_change
p140
I4
ssVindustrial_pollution
p141
g2
(g3
tp142
Rp143
Vdrinking_water
p144
I4
sVflood
p145
I4
sVgreenhouse_gas
p146
I2
sVacid_rain
p147
I4
ssVsoil_resources
p148
g2
(g3
tp149
Rp150
g42
I4
ssVnature_reserve
p151
g2
(g3
tp152
Rp153
Vnational_park
p154
I58
sg6
I12
sg49
I4
sVnature_reserve
p155
I72
sVestuary
p156
I18
sVisland
p157
I30
sVlake
p158
I24
sVbird
p159
I44
sVwater
p160
I6
sVprotected_area
p161
I2
sVsea
p162
I12
sVwildlife
p163
I12
sVwastewater
p164
I4
ssVatmospheric_conditions
p165
g2
(g3
tp166
Rp167
g136
I2
sg49
I2
sVice
p168
I2
sVocean
p169
I4
sVozone
p170
I2
sg113
I2
sVdust
p171
I6
sg45
I2
sVacid_rain
p172
I2
sVpollutant
p173
I2
ssVhazardous_waste
p174
g2
(g3
tp175
Rp176
g123
I4
sVindustrial_waste
p177
I4
sVhospital_waste
p178
I8
sVhazardous_waste
p179
I20
sVchemical_waste
p180
I6
sVused_oil
p181
I2
sVsewage_sludge
p182
I4
sg53
I4
sVpollution
p183
I2
sg138
I4
sVradioactive_waste
p184
I28
sg44
I4
sVelectronic_waste
p185
I4
sVwaste
p186
I6
sVwaste_management
p187
I4
sVwastewater
p188
I4
sg173
I4
sVglobal_warming
p189
I6
ssVchemical_waste
p190
g2
(g3
tp191
Rp192
Visland
p193
I12
sg115
I4
ssVlake
p194
g2
(g3
tp195
Rp196
Vatmosphere
p197
I4
sVsurface_water
p198
I10
sVestuary
p199
I2
sVblack_sea
p200
I6
sVreptile
p201
I4
sVantarctica
p202
I12
sVfire
p203
I28
sVsea
p204
I18
sVseal
p205
I10
sVnuisance
p206
I4
sVglobal_warming
p207
I6
sVnational_park
p208
I16
sVmountain
p209
I32
sVnature_reserve
p210
I8
sVmonkey
p211
I4
sg113
I14
sVlake
p212
I2322
sVice
p213
I8
sVdesert
p214
I2
sVenvironment
p215
I78
sVatlantic_ocean
p216
I3
sVprotected_area
p217
I2
sVwaste
p218
I28
sVerosion
p219
I4
sVbird
p220
I2
sVwatercourse
p221
I4
sVeutrophication
p222
I8
sVclimate_change
p223
I4
sVcaspian_sea
p224
I4
sVarctic
p225
I4
sVbear
p226
I12
sVecosystem
p227
I34
sVwater
p228
I88
sVinsect
p229
I10
sVdrought
p230
I4
sVearthquake
p231
I6
sVdeforestation
p232
I4
sVwildlife
p233
I4
sVbiodiversity
p234
I4
sVbaltic_sea
p235
I6
sg157
I100
sVocean
p236
I2
sVwolf
p237
I6
sVgroundwater
p238
I6
sVplain
p239
I4
sVfreshwater
p240
I40
sVacid_rain
p241
I4
sVpollution
p242
I2
ssVenvironment
p243
g2
(g3
tp244
Rp245
Vatmosphere
p246
I108
sVestuary
p247
I182
sVrodent
p248
I4
sVenvironmental_monitoring
p249
I4
sVindustrial_pollution
p250
I8
sVnature_reserve
p251
I22
sVhazardous_waste
p252
I6
sVchemical_waste
p253
I6
sg29
I322
sVenvironment
p254
I58
sVdecontamination
p255
I4
sVmarine_mammal
p256
I4
sg226
I6
sVwater_pollution
p257
I20
sVdefoliation
p258
I6
sg35
I8
sg53
I12
sVprotected_area
p259
I3
sg114
I30
sVecosystem
p260
I42
sg80
I14
sVacid_rain
p261
I16
sVwaste_disposal
p262
I4
sVmarine_life
p263
I28
sVmarine_environment
p264
I4
sg23
I86
sg205
I6
sVwater_resources
p265
I18
sVwater_management
p266
I8
sVglobal_warming
p267
I60
sVnatural_disaster
p268
I14
sVlittoral
p269
I6
sVice
p270
I32
sVtoxic_substance
p271
I8
sVcoastal_pollution
p272
I4
sVenvironmental_law
p273
I4
sg33
I2
sVenvironmental_economics
p274
I4
sVwaste_management
p275
I20
sg131
I26
sVnoise
p276
I82
sVrenewable_resources
p277
I2
sVlynx
p278
I2
sg42
I570
sVaquatic_environment
p279
I10
sVphysical_environment
p280
I4
sg49
I104
sVbiodiversity
p281
I64
sVbiosphere
p282
I24
sg157
I76
sVarid_zone
p283
I4
sVwolf
p284
I12
sVnoise_pollution
p285
I4
sg57
I116
sVtropical_zone
p286
I4
sVreptile
p287
I14
sVsurface_water
p288
I6
sVnoise_level
p289
I14
sVindustrial_waste
p290
I4
sVnorth_sea
p291
I28
sVvolcanic_eruption
p292
I2
sVpollution_control
p293
I16
sg45
I28
sVnational_park
p294
I36
sg70
I6
sg28
I12
sVearthquake
p295
I34
sg186
I152
sVdrinking_water
p296
I8
sVclimate_change
p297
I158
sg102
I24
sVstagnant_water
p298
I8
sg233
I100
sVcorrosion
p299
I10
sg47
I24
sVanimal_life
p300
I4
sVplain
p301
I22
sVnuisance
p302
I16
sVelectromagnetic_interference
p303
I4
sVsensitive_area
p304
I6
sVenvironmental_tax
p305
I4
sVwatercourse
p306
I6
sVpesticide_residue
p307
I4
sVred_sea
p308
I4
sVradioactive_waste
p309
I8
sg222
I2
sVenergy_resources
p310
I2
sVenvironmental_education
p311
I10
sVprevention_of_pollution
p312
I6
sVdolphin
p313
I8
sVenvironmental_policy
p314
I236
sVenvironmental_protection
p315
I4
sVnatural_resources
p316
I8
sVantarctica
p317
I36
sVsaltwater
p318
I88
sVenvironmental_impact
p319
I18
sVoil_pollution
p320
I8
sVmarine_ecosystem
p321
I6
sVnatural_hazard
p322
I6
sVmountain
p323
I162
sVgreenhouse_effect
p324
I14
sg113
I40
sVmineral_resources
p325
I2
sVdisaster_area
p326
I6
sVgreenhouse_gas
p327
I6
sVerosion
p328
I24
sVplant_life
p329
I8
sVarctic
p330
I94
sg48
I40
sg126
I18
sg44
I62
sVwhale
p331
I24
sVdesert
p332
I370
sVenvironmental_standard
p333
I8
sVpolar_region
p334
I4
sg52
I106
sVsoil_pollution
p335
I4
sg164
I4
ssVatlantic_ocean
p336
g2
(g3
tp337
Rp338
Vmediterranean_sea
p339
I8
sVarctic_ocean
p340
I4
sVbaltic_sea
p341
I4
sVestuary
p342
I6
sVblack_sea
p343
I3
sVenglish_channel
p344
I60
sVarctic
p345
I10
sVdolphin
p346
I4
sVwater
p347
I4
sVsea
p348
I40
sVisland
p349
I24
sVnorth_sea
p350
I64
sVfreshwater
p351
I4
ssVbiotope
p352
g2
(g3
tp353
Rp354
Vdesert
p355
I18
sg247
I4
ssVdecontamination
p356
g2
(g3
tp357
Rp358
Vwater
p359
I4
sVenvironment
p360
I2
sVgroundwater
p361
I4
ssVmarine_mammal
p362
g2
(g3
tp363
Rp364
g120
I4
sVnoise
p365
I6
sVclimate_change
p366
I4
sVisland
p367
I4
sVarctic
p368
I4
sg313
I958
sVbear
p369
I10
sVocean
p370
I10
sVwater
p371
I22
sg23
I6
sg205
I830
sg331
I1164
sVmarine_mammal
p372
I6
sg131
I64
sg87
I4
ssVarctic_ocean
p373
g2
(g3
tp374
Rp375
Vbaltic_sea
p376
I4
sVisland
p377
I4
sVice
p378
I4
sVocean
p379
I4
sVbear
p380
I3
sVsea
p381
I16
sVnorth_sea
p382
I8
sVnorwegian_sea
p383
I4
sVerosion
p384
I4
ssVdust
p385
g2
(g3
tp386
Rp387
Vatmosphere
p388
I12
sVseal
p389
I6
sVrodent
p390
I16
sVvolcanic_eruption
p391
I4
sVmountain
p392
I6
sVlake
p393
I4
sVice
p394
I36
sVenvironment
p395
I32
sVwaste
p396
I10
sg219
I8
sVbird
p397
I16
sVnoise
p398
I4
sg102
I8
sg225
I4
sVwater
p399
I173
sVinsect
p400
I28
sVdust
p401
I1
sg302
I4
sVdesert
p402
I2
sVpollutant
p403
I58
sVclimate
p404
I6
sVcorrosion
p405
I8
sVbiosphere
p406
I4
sg242
I10
ssVradioactive_pollution
p407
g2
(g3
tp408
Rp409
g42
I4
ssVbear
p410
g2
(g3
tp411
Rp412
Vdolphin
p413
I4
sg248
I4
sVsea
p414
I40
sVseal
p415
I62
sVwhale
p416
I50
sVmountain
p417
I10
sVmonkey
p418
I16
sVlake
p419
I2
sVice
p420
I44
sVenvironment
p421
I10
sVbird
p422
I50
sVplain
p423
I10
sVnoise
p424
I83
sVclimate_change
p425
I10
sg92
I18
sVarctic
p426
I4
sVclimate
p427
I8
sVbear
p428
I22
sVecosystem
p429
I2
sVwater
p430
I2
sg43
I24
sVdust
p431
I11
sVdrought
p432
I6
sVwildlife
p433
I168
sVisland
p434
I6
sg379
I2
sVwolf
p435
I24
sVlynx
p436
I16
sg57
I20
ssVenvironmental_indicator
p437
g2
(g3
tp438
Rp439
Vbiodiversity
p440
I4
sVclimate_change
p441
I10
sg73
I4
sVwater
p442
I14
sVprotected_area
p443
I4
sVwaste
p444
I2
sg397
I6
ssVstorage_of_waste
p445
g2
(g3
tp446
Rp447
Vhazardous_waste
p448
I4
ssVwater_pollution
p449
g2
(g3
tp450
Rp451
Veutrophication
p452
I10
sVindustrial_waste
p453
I4
sg276
I4
sVestuary
p454
I6
sVclimate_change
p455
I6
sVthermal_pollution
p456
I4
sg57
I22
sVdesertification
p457
I4
sg164
I4
sg29
I6
sg52
I4
sg125
I4
sVchemical_pollution
p458
I4
sVoil_pollution
p459
I4
sVwater_pollution
p460
I12
sVdrought
p461
I8
sVgreenhouse_gas
p462
I2
sVacid_rain
p463
I12
sVglobal_warming
p464
I6
ssVcontinental_shelf
p465
g2
(g3
tp466
Rp467
g199
I4
sVisland
p468
I2
sg368
I4
sg42
I4
sVsea
p469
I4
sVnatural_resources
p470
I2
ssVcountryside_conservation
p471
g2
(g3
tp472
Rp473
Vmountain
p474
I4
ssVterrestrial_ecosystem
p475
g2
(g3
tp476
Rp477
g6
I4
sVatmosphere
p478
I8
sVbiodiversity
p479
I2
sVfire
p480
I4
sVplain
p481
I6
sg73
I4
sVdesert
p482
I8
sg12
I6
sVacidification
p483
I12
sVearthquake
p484
I12
ssVbad_weather
p485
g2
(g3
tp486
Rp487
Vmountain
p488
I6
sg270
I12
sg103
I8
sg113
I104
sg128
I4
sVcyclone
p489
I16
sVdrought
p490
I100
sg46
I4
ssVindian_ocean
p491
g2
(g3
tp492
Rp493
Visland
p494
I62
sVred_sea
p495
I56
sg136
I8
sVatlantic_ocean
p496
I4
sVpacific_ocean
p497
I8
sVsea
p498
I8
ssVdefoliation
p499
g2
(g3
tp500
Rp501
Vdrought
p502
I6
sVdefoliation
p503
I8
ssVbathing_water
p504
g2
(g3
tp505
Rp506
g29
I4
sg23
I4
sg52
I4
ssVacidification
p507
g2
(g3
tp508
Rp509
g360
I4
sg75
I2
sg281
I4
sVclimate_change
p510
I4
sVecosystem
p511
I6
sg52
I14
sVwater
p512
I8
sg145
I8
sVantarctica
p513
I4
sVsea
p514
I4
sVisland
p515
I2
sVacid_rain
p516
I4
sg57
I2
ssVsewage_sludge
p517
g2
(g3
tp518
Rp519
Vsewage_sludge
p520
I4
sVhazardous_waste
p521
I4
ssVozone
p522
g2
(g3
tp523
Rp524
Vwater
p525
I2
sg478
I38
sg122
I4
sVclimate
p526
I4
sVocean
p527
I6
sVenvironment
p528
I12
sg22
I12
sVdust
p529
I32
sg94
I68
sVdrought
p530
I18
sVpollutant
p531
I320
sg242
I16
ssVenvironmental_economics
p532
g2
(g3
tp533
Rp534
g427
I4
sVclimate_change
p535
I8
sg57
I4
ssVgroundwater
p536
g2
(g3
tp537
Rp538
Vdrinking_water
p539
I10
sg360
I36
sg49
I4
sg240
I8
sVsurface_water
p540
I24
sg247
I4
sVecosystem
p541
I8
sVwastewater
p542
I4
sVlake
p543
I4
sg379
I16
sg42
I8
sVflood
p544
I6
sVgroundwater
p545
I50
sg461
I16
sVwaste
p546
I2
sg384
I8
sg131
I4
sg57
I4
ssVecosystem
p547
g2
(g3
tp548
Rp549
Vmarine_life
p550
I12
sg246
I24
sVsurface_water
p551
I4
sg247
I58
sVblack_sea
p552
I6
sg346
I8
sVreptile
p553
I18
sg384
I2
sVantarctica
p554
I56
sVsaltwater
p555
I4
sg23
I10
sg205
I12
sVwater_resources
p556
I6
sg52
I52
sVwhale
p557
I12
sVglobal_warming
p558
I8
sVnational_park
p559
I72
sg323
I54
sVnature_reserve
p560
I4
sVmarine_environment
p561
I6
sVmarine_pollution
p562
I4
sVdesertification
p563
I12
sVwastewater
p564
I2
sg29
I178
sg270
I20
sg332
I32
sVenvironment
p565
I20
sg113
I18
sVearthquake
p566
I12
sVmonkey
p567
I2
sVwolf
p568
I6
sg186
I4
sVwaste_management
p569
I4
sg131
I12
sVmarine_mammal
p570
I8
sg452
I8
sVclimatic_zone
p571
I6
sVarctic_ocean
p572
I3
sVclimate_change
p573
I14
sg102
I70
sVarctic
p574
I12
sg157
I18
sg49
I10
sVbear
p575
I22
sVecosystem
p576
I264
sg48
I22
sg126
I12
sVcoastal_protection
p577
I4
sVwater_pollution
p578
I6
sg45
I2
sVphysical_environment
p579
I4
sg47
I4
sVterrestrial_ecosystem
p580
I4
sg42
I16
sg233
I12
sg281
I44
sVbaltic_sea
p581
I4
sVanimal_life
p582
I4
sg282
I4
sg35
I6
sVarid_zone
p583
I4
sVmarine_ecosystem
p584
I28
sVozone
p585
I8
sVprotected_area
p586
I4
sg114
I14
sg301
I18
sg80
I34
sVacid_rain
p587
I4
sg57
I12
ssVfreshwater
p588
g2
(g3
tp589
Rp590
Vinsect
p591
I8
sVenvironment
p592
I14
sVmonkey
p593
I2
sg71
I2
sVwatercourse
p594
I6
sVblack_sea
p595
I4
sVisland
p596
I6
sg29
I104
sVdesert
p597
I2
sg42
I4
sVantarctica
p598
I20
sVsaltwater
p599
I32
sVgroundwater
p600
I10
sg13
I2
sg541
I12
sVpolluted_area
p601
I4
sg530
I12
sVwaste
p602
I4
sVbird
p603
I6
sg87
I2
ssVacid_rain
p604
g2
(g3
tp605
Rp606
Vozone
p607
I8
sVenvironment
p608
I6
sVlake
p609
I6
sVacid_rain
p610
I4
sVpollution
p611
I12
ssVwaste_disposal
p612
g2
(g3
tp613
Rp614
Vwaste_incineration
p615
I4
sVhazardous_waste
p616
I8
sg442
I14
sVflood
p617
I3
sVwaste
p618
I12
sVerosion
p619
I6
sVwastewater
p620
I4
ssVmarine_life
p621
g2
(g3
tp622
Rp623
Vmarine_life
p624
I6
sVreptile
p625
I6
sg313
I352
sVsea
p626
I4
sg205
I152
sVindustrial_pollution
p627
I6
sVglobal_warming
p628
I4
sVenvironment
p629
I12
sg35
I4
sg131
I100
sVmarine_mammal
p630
I12
sVclimate_change
p631
I4
sVlynx
p632
I4
sg369
I4
sg42
I4
sVwater_pollution
p633
I4
sg331
I258
sg531
I4
sg233
I4
sg74
I4
sg52
I4
sg11
I4
ssVindustrial_hazard
p634
g2
(g3
tp635
Rp636
g480
I4
ssVmarine_environment
p637
g2
(g3
tp638
Rp639
Vmarine_life
p640
I4
sVmediterranean_sea
p641
I4
sg247
I24
sVblack_sea
p642
I6
sg346
I3
sVcontinental_shelf
p643
I6
sVprotected_species
p644
I2
sg23
I10
sVpollution_control
p645
I4
sg52
I18
sVhazardous_waste
p646
I4
sg29
I20
sg168
I4
sg565
I4
sg61
I16
sg35
I4
sg131
I4
sVmarine_mammal
p647
I8
sVeutrophication
p648
I6
sg276
I4
sVclimate_change
p649
I10
sg368
I4
sg328
I8
sVradioactive_pollution
p650
I4
sg42
I16
sVnorth_sea
p651
I4
sg331
I4
sVphysical_environment
p652
I4
sg427
I4
sg440
I12
sg260
I4
sVmarine_ecosystem
p653
I4
sVisland
p654
I2
sg57
I8
ssVprotected_species
p655
g2
(g3
tp656
Rp657
g120
I2
sg313
I2
sg226
I6
sg126
I2
sg435
I6
sg632
I2
sg331
I13
sg415
I5
sg131
I16
sVmarine_mammal
p658
I2
ssVsea
p659
g2
(g3
tp660
Rp661
Vmediterranean_sea
p662
I14
sVatmosphere
p663
I8
sVionian_sea
p664
I4
sVoil_pollution
p665
I4
sg247
I4
sVblack_sea
p666
I58
sVanimal_life
p667
I4
sg313
I38
sVcontinental_shelf
p668
I8
sVdust
p669
I8
sVantarctica
p670
I8
sVnoise
p671
I2
sVradioactive_waste
p672
I4
sVsea
p673
I56
sVseal
p674
I18
sVantarctic_ocean
p675
I4
sg331
I12
sVglobal_warming
p676
I4
sVnational_park
p677
I4
sVmountain
p678
I2
sVacidification
p679
I8
sVmarine_environment
p680
I4
sg113
I2
sVbiodiversity
p681
I4
sVenglish_channel
p682
I4
sVlake
p683
I12
sg378
I58
sVearthquake
p684
I2
sg565
I16
sVatlantic_ocean
p685
I4
sg489
I12
sg396
I20
sg328
I4
sVmarine_pollution
p686
I4
sVmarine_mammal
p687
I10
sVeutrophication
p688
I4
sVarctic_ocean
p689
I6
sVfire
p690
I8
sVcaspian_sea
p691
I20
sVaegean_sea
p692
I6
sVarctic
p693
I6
sVwildlife
p694
I4
sVbear
p695
I12
sg541
I4
sg42
I54
sVinsect
p696
I20
sVbad_weather
p697
I4
sVirish_sea
p698
I4
sVnorth_sea
p699
I58
sVlittoral
p700
I2
sVdrought
p701
I24
sVdesert
p702
I114
sVclimate
p703
I2
sVcorrosion
p704
I12
sVclimate_change
p705
I6
sVbaltic_sea
p706
I66
sVindian_ocean
p707
I4
sVadriatic_sea
p708
I12
sg157
I68
sVred_sea
p709
I22
sg52
I6
sg131
I4
sVpacific_ocean
p710
I10
sg481
I2
sg351
I2
sg563
I12
sg57
I24
ssVseal
p711
g2
(g3
tp712
Rp713
Venvironment
p714
I4
sVwildlife
p715
I54
sg704
I12
sg367
I42
sg368
I4
sVwater
p716
I6
sg420
I16
sg541
I8
sVrodent
p717
I4
sg202
I12
sVbear
p718
I133
sg23
I6
sVseal
p719
I38
sg171
I4
sVwhale
p720
I2
sVbird
p721
I6
ssVnatural_resources
p722
g2
(g3
tp723
Rp724
Vmarine_life
p725
I2
sg246
I4
sVsurface_water
p726
I6
sg247
I2
sVseal
p727
I2
sVenergy_resources
p728
I8
sVenvironmental_monitoring
p729
I2
sVprotected_species
p730
I2
sg23
I4
sVwater_management
p731
I2
sVwater_resources
p732
I10
sVenvironmental_education
p733
I2
sVglobal_warming
p734
I2
sVnational_park
p735
I4
sg323
I16
sVrenewable_resources
p736
I4
sg28
I2
sg29
I24
sg565
I12
sVmineral_resources
p737
I16
sg186
I2
sVwaste_management
p738
I2
sg131
I12
sVplant_life
p739
I2
sg55
I2
sVdrinking_water
p740
I4
sg276
I2
sVclimate_change
p741
I2
sVenvironmental_protection
p742
I2
sg49
I14
sg42
I638
sVwhale
p743
I2
sVresources_of_the_sea
p744
I2
sg173
I2
sg48
I2
sg233
I126
sg281
I16
sVanimal_life
p745
I4
sg157
I2
sg52
I14
sg114
I4
sg260
I6
sg80
I12
sVwaste_disposal
p746
I2
sg57
I2
ssVwater_management
p747
g2
(g3
tp748
Rp749
Vsurface_water
p750
I4
sVclimate_change
p751
I4
sg110
I4
sg42
I12
sg32
I8
sVgroundwater
p752
I8
sg482
I4
ssVglobal_warming
p753
g2
(g3
tp754
Rp755
Vatmosphere
p756
I18
sg598
I10
sg23
I4
sVvolcanic_eruption
p757
I6
sVglobal_warming
p758
I56
sVgreenhouse_effect
p759
I8
sg28
I4
sg168
I4
sg332
I4
sg395
I4
sg113
I76
sVgreenhouse_gas
p760
I12
sg384
I4
sVbird
p761
I10
sVclimate_change
p762
I62
sVarctic
p763
I26
sg525
I18
sg45
I52
sg46
I4
sVdeforestation
p764
I12
sg427
I4
sVocean
p765
I6
sg53
I4
sVacid_rain
p766
I4
sVpollution
p767
I16
ssVnatural_disaster
p768
g2
(g3
tp769
Rp770
Vvolcanic_eruption
p771
I210
sVnatural_resources
p772
I2
sVglobal_warming
p773
I24
sVman-made_disaster
p774
I3
sVnatural_disaster
p775
I24
sg28
I4
sg270
I26
sg395
I4
sg113
I6972
sg33
I558
sg328
I28
sVclimate_change
p776
I40
sg102
I1020
sVwater
p777
I6
sg126
I46
sg45
I2522
sg295
I4980
sVdeforestation
p778
I6
sVclimate
p779
I12
sVbad_weather
p780
I10
sVdefoliation
p781
I4
sVisland
p782
I6
sVacid_rain
p783
I6
sg57
I4
ssVice
p784
g2
(g3
tp785
Rp786
g663
I24
sVblack_sea
p787
I4
sVfire_protection
p788
I4
sg317
I4
sg23
I90
sg415
I8
sVglobal_warming
p789
I10
sVmountain
p790
I42
sVpolar_region
p791
I2
sg29
I10
sg213
I2
sg597
I2
sg360
I10
sVflood
p792
I10
sVacidification
p793
I10
sg397
I3
sVdrinking_water
p794
I4
sVclimate_change
p795
I8
sVfire
p796
I78
sVarctic
p797
I124
sVbear
p798
I74
sg42
I42
sVinsect
p799
I6
sg44
I26
sg230
I20
sg46
I8
sVclimate
p800
I2
sVisland
p801
I38
sg236
I4
sVplain
p802
I4
sVpollution
p803
I4
ssVchemical_pollution
p804
g2
(g3
tp805
Rp806
g384
I4
sVclimate_change
p807
I6
ssVenvironmental_law
p808
g2
(g3
tp809
Rp810
g67
I6
sVclimate_change
p811
I8
sVmarine_environment
p812
I4
sVhazardous_waste
p813
I12
sg91
I12
sg202
I6
sVnatural_resources
p814
I3
sVnuisance
p815
I4
sg186
I28
sVwaste_management
p816
I4
sVtoxic_substance
p817
I10
sg87
I4
ssVcyclone
p818
g2
(g3
tp819
Rp820
Vclimate
p821
I2
sg515
I2
sVocean
p822
I42
sg360
I2
sg113
I4
sVcyclone
p823
I106
sg231
I4
ssVprotected_area
p824
g2
(g3
tp825
Rp826
Vnational_park
p827
I4
sg6
I2
sVnature_reserve
p828
I2
sVbiodiversity
p829
I5
sg247
I3
sVthermal_pollution
p830
I2
sVbiosphere
p831
I2
sVisland
p832
I2
sg715
I2
sVlake
p833
I4
sg123
I2
sVatlantic_ocean
p834
I2
sVecosystem
p835
I5
sg803
I2
ssVwaste_management
p836
g2
(g3
tp837
Rp838
Vclimate_change
p839
I14
sVhazardous_waste
p840
I8
sg123
I4
sVflood
p841
I5
sVpollution_control
p842
I4
sVelectronic_waste
p843
I22
sg186
I20
sVerosion
p844
I10
sVglobal_warming
p845
I10
ssVbird
p846
g2
(g3
tp847
Rp848
g120
I186
sVestuary
p849
I4
sg313
I40
sVatmosphere
p850
I8
sVrodent
p851
I110
sVantarctica
p852
I12
sVprotected_species
p853
I12
sg23
I4
sg205
I74
sg701
I18
sVmountain
p854
I12
sVnature_reserve
p855
I10
sVmonkey
p856
I46
sVpolar_region
p857
I24
sVlake
p858
I16
sg420
I18
sVenvironment
p859
I2
sVflood
p860
I4
sg186
I6
sVbird
p861
I22
sVplant_life
p862
I4
sVmarine_mammal
p863
I8
sVnoise
p864
I36
sVclimate_change
p865
I10
sVfire
p866
I4
sg368
I10
sVisland
p867
I8
sVclimate
p868
I40
sVbear
p869
I26
sg42
I20
sg126
I120
sg331
I46
sVdesert
p870
I24
sVmarsupial
p871
I2
sg233
I8
sVbiodiversity
p872
I4
sg301
I14
sg370
I2
sg206
I4
sg436
I2
sg435
I62
sVecosystem
p873
I14
sg80
I4
sg57
I10
ssVlocal_pollution
p874
g2
(g3
tp875
Rp876
g123
I4
sg850
I4
ssVnational_park
p877
g2
(g3
tp878
Rp879
Vnational_park
p880
I602
sVmountain
p881
I68
sg233
I4
sVnature_reserve
p882
I3
sg211
I16
sVenvironment
p883
I4
sg157
I94
sg91
I4
sg29
I44
sg369
I26
sg379
I4
sVdeforestation
p884
I4
sVinsect
p885
I6
sVbiodiversity
p886
I4
sVprotected_area
p887
I5
sVnoise_pollution
p888
I4
sg74
I4
sVwolf
p889
I6
sVbird
p890
I24
sg87
I4
ssVnoise
p891
g2
(g3
tp892
Rp893
Vwhale
p894
I6
sVatmosphere
p895
I4
sVnoise_level
p896
I10
sVradioactive_waste
p897
I8
sVsea
p898
I2
sg727
I4
sg701
I8
sg488
I12
sg93
I8
sg231
I4
sg565
I34
sVwaste
p899
I8
sVbird
p900
I30
sVnoise
p901
I12
sg102
I14
sVbear
p902
I37
sg42
I12
sg126
I4
sVdust
p903
I62
sVnuisance
p904
I4
sVdesert
p905
I8
sVpollutant
p906
I12
sVocean
p907
I16
sVelectromagnetic_interference
p908
I10
sVmechanical_vibration
p909
I4
sVwolf
p910
I4
sVpollution
p911
I26
ssVrenewable_resources
p912
g2
(g3
tp913
Rp914
g42
I38
sg233
I1
sg281
I2
sVclimate_change
p915
I2
sVagricultural_waste
p916
I4
sg169
I6
sg565
I2
sVwater_resources
p917
I2
sg186
I10
sg331
I2
sg80
I4
sg131
I4
sVmarine_mammal
p918
I2
sg57
I2
ssVman-made_disaster
p919
g2
(g3
tp920
Rp921
Vclimate_change
p922
I9
sVnatural_disaster
p923
I1
sg102
I62
sg123
I2
sg113
I102
sVcyclone
p924
I4
sVwater_pollution
p925
I2
sVdrought
p926
I24
sg295
I1
sVglobal_warming
p927
I3
ssVlynx
p928
g2
(g3
tp929
Rp930
g360
I2
sVwildlife
p931
I62
sg225
I2
sVbird
p932
I2
sVlynx
p933
I30
ssVwater
p934
g2
(g3
tp935
Rp936
Vmediterranean_sea
p937
I32
sg246
I6
sg247
I170
sVblack_sea
p938
I20
sVfire_protection
p939
I18
sVuse_of_water
p940
I4
sVrodent
p941
I20
sVionian_sea
p942
I4
sVhazardous_waste
p943
I8
sg29
I1458
sg565
I16
sVatlantic_ocean
p944
I28
sVmarine_mammal
p945
I18
sVarctic_ocean
p946
I6
sVfire
p947
I16
sg124
I28
sVwater_pollution
p948
I8
sVcontinental_shelf
p949
I4
sVbad_weather
p950
I4
sVindian_ocean
p951
I12
sVbathing_water
p952
I4
sg328
I4
sVsewage_sludge
p953
I4
sg53
I4
sVprotected_area
p954
I6
sg114
I114
sg260
I32
sg80
I20
sVacid_rain
p955
I4
sVwaste_disposal
p956
I6
sVmarine_life
p957
I6
sVmarine_environment
p958
I4
sg23
I296
sg205
I40
sVwater_resources
p959
I4
sVwater_management
p960
I6
sVglobal_warming
p961
I16
sVnatural_disaster
p962
I6
sg270
I44
sg823
I12
sVwaste_management
p963
I4
sg131
I38
sg276
I4
sg228
I68
sVearthquake
p964
I40
sVclimate
p965
I98
sVbiodiversity
p966
I4
sVbaltic_sea
p967
I28
sVadriatic_sea
p968
I12
sVbiosphere
p969
I6
sg157
I46
sVwolf
p970
I14
sg57
I20
sVreptile
p971
I6
sVsurface_water
p972
I16
sg44
I138
sVpacific_ocean
p973
I8
sVvolcanic_eruption
p974
I4
sVpollution_control
p975
I4
sg45
I18
sVnational_park
p976
I4
sVmonkey
p977
I2
sVenglish_channel
p978
I4
sVbiodegradability
p979
I4
sg186
I8
sVdrinking_water
p980
I18
sVclimate_change
p981
I20
sVcaspian_sea
p982
I4
sVwildlife
p983
I8
sg704
I4
sVpollutant
p984
I10
sg301
I2
sg306
I10
sVpesticide_residue
p985
I4
sVwhale
p986
I34
sVeutrophication
p987
I4
sVindustrial_waste
p988
I6
sVenvironmental_education
p989
I4
sg313
I32
sg598
I24
sVsaltwater
p990
I80
sVenvironmental_impact
p991
I10
sg323
I12
sg113
I60
sVgreenhouse_gas
p992
I2
sVacidification
p993
I4
sVplant_life
p994
I6
sVarctic
p995
I3
sVirish_sea
p996
I58
sVinsect
p997
I26
sVnorth_sea
p998
I100
sVnuisance
p999
I4
sVdesert
p1000
I4
sVred_sea
p1001
I42
sVpolar_region
p1002
I2
sg52
I320
sVnorwegian_sea
p1003
I2
sg164
I10
ssVpollution_from_ships
p1004
g2
(g3
tp1005
Rp1006
Vfire
p1007
I2
sg61
I2
sVnoise
p1008
I2
ssVlittoral
p1009
g2
(g3
tp1010
Rp1011
g42
I4
sg515
I6
sVsea
p1012
I4
ssVearthquake
p1013
g2
(g3
tp1014
Rp1015
Vman-made_disaster
p1016
I2
sg821
I4
sg138
I78
sVdust
p1017
I4
sVmountain
p1018
I10
sg102
I26
sVisland
p1019
I4
sg129
I94
sVnatural_disaster
p1020
I44
sVocean
p1021
I12
sg42
I40
sg113
I72
sg76
I2
sVvolcanic_eruption
p1022
I2
sVcyclone
p1023
I8
sVlake
p1024
I4
sg45
I12
sVearthquake
p1025
I8
sg360
I8
sVglobal_warming
p1026
I6
ssVenvironmental_research
p1027
g2
(g3
tp1028
Rp1029
g42
I4
sg80
I4
ssVwildlife
p1030
g2
(g3
tp1031
Rp1032
Vmarine_life
p1033
I28
sg120
I172
sVenvironmental_education
p1034
I4
sVmarine_environment
p1035
I4
sg199
I4
sg313
I468
sg850
I8
sg851
I90
sVerosion
p1036
I40
sVpacific_ocean
p1037
I4
sVprotected_species
p1038
I10
sg626
I4
sg205
I834
sVnatural_resources
p1039
I2
sVsurface_water
p1040
I4
sVnuisance
p1041
I10
sVglobal_warming
p1042
I8
sVnational_park
p1043
I72
sg323
I4
sVnature_reserve
p1044
I8
sg856
I408
sVchemical_pollution
p1045
I4
sVlake
p1046
I4
sg565
I86
sg113
I16
sg481
I4
sVprotected_area
p1047
I12
sg396
I24
sg35
I4
sg131
I3484
sVplant_life
p1048
I4
sVmarine_mammal
p1049
I114
sVdrinking_water
p1050
I14
sg276
I16
sVclimate_change
p1051
I24
sVwild_mammal
p1052
I6
sg102
I4
sg368
I8
sVisland
p1053
I4
sg703
I18
sg226
I814
sVfire_protection
p1054
I4
sg42
I12
sg126
I394
sg331
I492
sVdesert
p1055
I2
sVpollutant
p1056
I12
sg871
I4
sg884
I8
sVwildlife
p1057
I320
sg281
I4
sg260
I14
sVocean
p1058
I48
sVrenewable_resources
p1059
I2
sg435
I406
sg600
I8
sg632
I128
sVsaltwater
p1060
I14
sVfreshwater
p1061
I4
sVwastewater
p1062
I10
sg911
I12
ssVbiodiversity
p1063
g2
(g3
tp1064
Rp1065
g246
I4
sVsurface_water
p1066
I4
sg313
I2
sg120
I6
sg219
I8
sVsea
p1067
I12
sg205
I4
sg45
I4
sVglobal_warming
p1068
I6
sVnational_park
p1069
I10
sVozone
p1070
I4
sg70
I4
sg28
I4
sVexploitation_of_resources
p1071
I4
sg565
I48
sg544
I2
sVwolf
p1072
I4
sVacidification
p1073
I12
sg131
I56
sg452
I4
sVover-exploitation_of_resources
p1074
I4
sVclimate_change
p1075
I8
sVmountain
p1076
I4
sg480
I14
sVlynx
p1077
I4
sg65
I2
sg369
I4
sg42
I16
sg126
I6
sg331
I4
sg332
I4
sVdeforestation
p1078
I4
sg233
I8
sVbiodiversity
p1079
I112
sVanimal_life
p1080
I4
sg260
I18
sg52
I6
sg815
I4
sVprotected_area
p1081
I3
sg157
I4
sVacid_rain
p1082
I4
sg57
I8
ssVbaltic_sea
p1083
g2
(g3
tp1084
Rp1085
g349
I12
sVsensitive_area
p1086
I4
sVglobal_warming
p1087
I4
sg87
I4
ssVbiosphere
p1088
g2
(g3
tp1089
Rp1090
Vdrinking_water
p1091
I4
sg323
I4
sg246
I4
sg872
I8
sVclimate_change
p1092
I4
sVenvironment
p1093
I8
sVbiosphere
p1094
I10
sVecosystem
p1095
I2
sg597
I2
sVindustrial_waste
p1096
I4
sg29
I4
sg42
I6
sg480
I16
sVvolcanic_eruption
p1097
I4
sg52
I6
sVbird
p1098
I4
sVglobal_warming
p1099
I8
ssVgeophysical_environment
p1100
g2
(g3
tp1101
Rp1102
Vflood
p1103
I6
sVerosion
p1104
I4
sVearthquake
p1105
I6
ssVarid_zone
p1106
g2
(g3
tp1107
Rp1108
Visland
p1109
I4
sg49
I8
sVdesert
p1110
I2
ssVwolf
p1111
g2
(g3
tp1112
Rp1113
Vwater
p1114
I2
sg404
I4
sg6
I8
sg203
I24
sVisland
p1115
I4
sg345
I2
sg278
I8
sVwildlife
p1116
I104
sVbear
p1117
I96
sVlake
p1118
I6
sg390
I4
sVinsect
p1119
I4
sVwolf
p1120
I6
sg74
I2
sg553
I2
sg761
I4
ssVwaste_recycling
p1121
g2
(g3
tp1122
Rp1123
g186
I2
ssVnoise_pollution
p1124
g2
(g3
tp1125
Rp1126
g242
I8
sg138
I4
sg1021
I6
ssVmanagement_of_resources
p1127
g2
(g3
tp1128
Rp1129
g42
I2
sg234
I2
sg186
I2
sVuse_of_water
p1130
I2
ssVpollution
p1131
g2
(g3
tp1132
Rp1133
g416
I6
sVindustrial_waste
p1134
I16
sVsea
p1135
I4
sVestuary
p1136
I12
sVdolphin
p1137
I12
sg478
I2
sg158
I2
sVoil_pollution
p1138
I4
sVseal
p1139
I2
sVchemical_pollution
p1140
I12
sVmarine_ecosystem
p1141
I4
sVtoxic_substance
p1142
I4
sVindustrial_pollution
p1143
I4
sVglobal_warming
p1144
I4
sVnational_park
p1145
I4
sVmountain
p1146
I6
sVmarine_environment
p1147
I4
sVhazardous_waste
p1148
I10
sVgreenhouse_effect
p1149
I6
sg28
I4
sg164
I4
sVdomestic_waste
p1150
I4
sVenvironment
p1151
I68
sg113
I39
sg1023
I8
sVgreenhouse_gas
p1152
I16
sg35
I24
sg452
I20
sg276
I96
sVclimate_change
p1153
I16
sg102
I8
sg225
I6
sg515
I4
sVagricultural_waste
p1154
I2
sVradioactive_pollution
p1155
I4
sVecosystem
p1156
I8
sg42
I44
sg966
I10
sg44
I48
sVwater_pollution
p1157
I8
sg45
I4
sVdesert
p1158
I6
sg47
I22
sg302
I8
sg48
I2
sg49
I18
sg186
I80
sg328
I4
sg52
I8
sg53
I30
sVgroundwater
p1159
I4
sVnoise_pollution
p1160
I8
sVplain
p1161
I4
sVterrestrial_ecosystem
p1162
I4
sg240
I2
sVacid_rain
p1163
I60
sVwaste_disposal
p1164
I4
sVpollution
p1165
I12
ssVtropical_zone
p1166
g2
(g3
tp1167
Rp1168
Vdesert
p1169
I4
ssVflood
p1170
g2
(g3
tp1171
Rp1172
Vsurface_water
p1173
I4
sVseal
p1174
I6
sg23
I2
sVvolcanic_eruption
p1175
I4
sg790
I6
sVmonkey
p1176
I4
sVnatural_disaster
p1177
I4
sg457
I8
sg29
I22
sVice
p1178
I6
sg360
I24
sVflood
p1179
I60
sVcyclone
p1180
I48
sVerosion
p1181
I6
sg761
I26
sVgroundwater
p1182
I6
sVclimate_change
p1183
I4
sVman-made_disaster
p1184
I4
sVfire
p1185
I10
sg368
I10
sg931
I6
sVdeforestation
p1186
I6
sg45
I42
sg295
I76
sg42
I42
sVclimate
p1187
I16
sg281
I6
sVisland
p1188
I4
sg568
I8
sVwatercourse
p1189
I4
sVplain
p1190
I8
ssVreptile
p1191
g2
(g3
tp1192
Rp1193
Vreptile
p1194
I2
sVestuary
p1195
I4
sVdolphin
p1196
I10
sg851
I16
sVsaltwater
p1197
I12
sg128
I8
sg129
I10
sVmountain
p1198
I4
sVmonkey
p1199
I70
sg131
I192
sVmarine_mammal
p1200
I10
sVbear
p1201
I50
sVwater
p1202
I60
sg126
I50
sVwhale
p1203
I16
sg482
I14
sg132
I8
sg67
I28
sg494
I2
sVocean
p1204
I4
sg284
I26
sg541
I4
sg80
I4
ssVsurface_water
p1205
g2
(g3
tp1206
Rp1207
Vdrinking_water
p1208
I12
sg716
I52
sVsurface_water
p1209
I4
sg849
I8
sVenvironment
p1210
I2
sg368
I4
sg29
I100
sg52
I10
sg53
I4
sVatlantic_ocean
p1211
I6
sg591
I4
sVpacific_ocean
p1212
I4
sg114
I4
sg1135
I10
sVpollution
p1213
I6
sg482
I4
sg531
I4
sVwatercourse
p1214
I4
ssVnoise_level
p1215
g2
(g3
tp1216
Rp1217
g395
I4
sg276
I12
sVnoise_level
p1218
I6
sg57
I4
ssVaquatic_environment
p1219
g2
(g3
tp1220
Rp1221
Vdrinking_water
p1222
I6
sg67
I6
sVestuary
p1223
I4
sg29
I26
sg236
I44
sg91
I12
sVinsect
p1224
I4
sg1197
I6
sg600
I4
sg1135
I10
sVfreshwater
p1225
I10
sg87
I4
ssVenergy_resources
p1226
g2
(g3
tp1227
Rp1228
g52
I2
sg42
I14
sVwater_resources
p1229
I2
sVnatural_resources
p1230
I4
sg186
I4
sg57
I2
ssVquality_of_the_environment
p1231
g2
(g3
tp1232
Rp1233
Vpollution_control
p1234
I4
sVwaste_management
p1235
I4
ssVpacific_ocean
p1236
g2
(g3
tp1237
Rp1238
Vindian_ocean
p1239
I4
sg349
I58
sVred_sea
p1240
I18
sg420
I4
sg46
I4
sg136
I6
sVsea
p1241
I6
sVdesert
p1242
I6
ssVvolcanic_eruption
p1243
g2
(g3
tp1244
Rp1245
Vflood
p1246
I2
sVgreenhouse_gas
p1247
I4
sVocean
p1248
I20
sVnatural_disaster
p1249
I4
ssVpollution_control
p1250
g2
(g3
tp1251
Rp1252
Vgreenhouse_gas
p1253
I2
sVhazardous_waste
p1254
I4
sg164
I4
sg42
I4
sg1008
I8
sVaquatic_environment
p1255
I4
sVnuisance
p1256
I4
sg186
I8
sVwaste_management
p1257
I4
sVmarine_pollution
p1258
I4
sg57
I4
ssVfur-bearing_animal
p1259
g2
(g3
tp1260
Rp1261
g970
I2
sg124
I3
sg129
I2
ssVtoxic_substance
p1262
g2
(g3
tp1263
Rp1264
g94
I6
sVhazardous_waste
p1265
I20
sg12
I2
sg885
I6
sVradioactive_waste
p1266
I4
sVpesticide_residue
p1267
I4
sVdust
p1268
I4
sg396
I6
sVacid_rain
p1269
I4
sg1056
I6
sg87
I2
ssVadaptation_to_climate_change
p1270
g2
(g3
tp1271
Rp1272
g1103
I4
ssVmonkey
p1273
g2
(g3
tp1274
Rp1275
g12
I2
sg163
I26
sVmonkey
p1276
I16
sVmountain
p1277
I16
sVisland
p1278
I2
sVbear
p1279
I32
sg379
I8
sg565
I4
sg43
I2
sg910
I4
sg220
I175
ssVdesertification
p1280
g2
(g3
tp1281
Rp1282
g123
I8
sg821
I6
sg360
I6
sVecosystem
p1283
I4
sVdesertification
p1284
I4
sg48
I4
sg145
I8
sVcyclone
p1285
I28
sVglobal_warming
p1286
I4
sVerosion
p1287
I24
sg87
I8
ssVenglish_channel
p1288
g2
(g3
tp1289
Rp1290
g128
I4
ssVphysical_environment
p1291
g2
(g3
tp1292
Rp1293
Vnational_park
p1294
I6
sg395
I4
sg49
I8
sg276
I4
sVclimate_change
p1295
I4
sg6
I4
sg74
I4
sg246
I4
sg93
I6
sg169
I4
sg42
I4
sVenvironmental_monitoring
p1296
I4
sg1103
I6
sVwaste
p1297
I4
sVglobal_warming
p1298
I6
sg1104
I4
sVphysical_environment
p1299
I8
sg57
I6
ssVbiodegradability
p1300
g2
(g3
tp1301
Rp1302
Venvironment
p1303
I4
ssVwaste
p1304
g2
(g3
tp1305
Rp1306
Vwhale
p1307
I16
sVdrinking_water
p1308
I4
sVindustrial_waste
p1309
I42
sVsurface_water
p1310
I4
sg478
I28
sVrodent
p1311
I8
sVerosion
p1312
I4
sg240
I4
sg1060
I20
sVradioactive_waste
p1313
I60
sVsea
p1314
I62
sVseal
p1315
I2
sVelectronic_waste
p1316
I3
sVacid_rain
p1317
I4
sVnuisance
p1318
I8
sVglobal_warming
p1319
I16
sg6
I2
sVhazardous_waste
p1320
I28
sVchemical_waste
p1321
I26
sg158
I54
sg394
I36
sVtoxic_substance
p1322
I4
sVenvironment
p1323
I14
sg860
I12
sVgreenhouse_gas
p1324
I4
sVwaste_management
p1325
I8
sg761
I30
sVplain
p1326
I4
sg452
I4
sg276
I22
sVclimate_change
p1327
I10
sVfire
p1328
I4
sVused_oil
p1329
I8
sVisland
p1330
I136
sVagricultural_waste
p1331
I4
sVwildlife
p1332
I4
sg369
I18
sg1283
I4
sg42
I164
sg126
I12
sg44
I18
sVwater_pollution
p1333
I6
sg530
I12
sg1242
I20
sg47
I18
sVdeforestation
p1334
I4
sg703
I26
sVwaste
p1335
I14
sg35
I4
sVenvironmental_standard
p1336
I4
sVnatural_disaster
p1337
I4
sVsewage_sludge
p1338
I62
sVhospital_waste
p1339
I2
sg52
I36
sg170
I4
sVwolf
p1340
I4
sg114
I2
sVnoise_pollution
p1341
I4
sVpesticide_residue
p1342
I6
sVmanagement_of_resources
p1343
I2
sg57
I16
sg164
I16
sVwaste_disposal
p1344
I4
sVenvironmental_impact
p1345
I6
ssVmarine_pollution
p1346
g2
(g3
tp1347
Rp1348
g379
I4
sg164
I8
sVclimate_change
p1349
I4
sg57
I4
ssVdrinking_water
p1350
g2
(g3
tp1351
Rp1352
Vdrinking_water
p1353
I6
sg94
I6
sVindustrial_waste
p1354
I4
sg405
I4
sVsurface_water
p1355
I6
sVnatural_disaster
p1356
I10
sg29
I12
sg42
I8
sVflood
p1357
I6
sVgroundwater
p1358
I8
sVnorth_sea
p1359
I4
sg186
I8
sg188
I4
ssVclimate_change
p1360
g2
(g3
tp1361
Rp1362
g222
I4
sg246
I10
sg313
I4
sVpollution_control
p1363
I6
sVreptile
p1364
I6
sVvolcanic_eruption
p1365
I2
sg22
I4
sg23
I38
sg205
I4
sVwater_resources
p1366
I6
sVchemical_pollution
p1367
I4
sg52
I28
sVglobal_warming
p1368
I122
sVnatural_hazard
p1369
I4
sg488
I6
sVnatural_disaster
p1370
I6
sVgreenhouse_effect
p1371
I8
sg28
I24
sVelectronic_waste
p1372
I16
sg73
I4
sg270
I8
sg332
I8
sg565
I12
sg113
I374
sVlynx
p1373
I4
sg33
I4
sVgreenhouse_gas
p1374
I8
sVwaste_management
p1375
I4
sg131
I12
sg35
I4
sVclean_development_mechanism
p1376
I10
sVclimate_change
p1377
I104
sg102
I4
sVarctic
p1378
I62
sg328
I16
sg49
I4
sg369
I4
sg42
I18
sVinsect
p1379
I6
sg281
I8
sVeu_emissions_trading_scheme
p1380
I2
sVdust
p1381
I6
sVwater_pollution
p1382
I6
sg45
I284
sg295
I40
sg47
I4
sVterrestrial_ecosystem
p1383
I4
sg48
I4
sg233
I4
sg186
I12
sVbiosphere
p1384
I8
sg260
I18
sVpolar_region
p1385
I6
sVmarine_ecosystem
p1386
I4
sg94
I6
sVemission_trading
p1387
I32
sg157
I20
sg80
I4
sVacid_rain
p1388
I12
sg57
I70
ssVwild_mammal
p1389
g2
(g3
tp1390
Rp1391
Vmonkey
p1392
I2
sg1311
I4
sg591
I4
sg970
I4
sVseal
p1393
I2
sVbird
p1394
I2
ssVcaspian_sea
p1395
g2
(g3
tp1396
Rp1397
Vblack_sea
p1398
I3
sVarctic_ocean
p1399
I6
ssVaegean_sea
p1400
g2
(g3
tp1401
Rp1402
Vcontinental_shelf
p1403
I8
ssVstagnant_water
p1404
g2
(g3
tp1405
Rp1406
g103
I8
sVlake
p1407
I16
ssVagricultural_waste
p1408
g2
(g3
tp1409
Rp1410
g347
I4
sg186
I4
sg73
I4
ssVclimate
p1411
g2
(g3
tp1412
Rp1413
Vtropical_zone
p1414
I8
sg246
I4
sg19
I2
sVblack_sea
p1415
I4
sg35
I6
sg554
I14
sVenvironmental_impact
p1416
I4
sg23
I2
sVvolcanic_eruption
p1417
I4
sg416
I6
sVindustrial_pollution
p1418
I4
sVglobal_warming
p1419
I20
sg323
I12
sg70
I4
sVpolar_region
p1420
I4
sVgreenhouse_effect
p1421
I4
sg457
I6
sg29
I32
sg270
I2
sVearthquake
p1422
I4
sg395
I90
sg113
I46
sg33
I10
sVgreenhouse_gas
p1423
I12
sg328
I2
sg131
I10
sVplain
p1424
I8
sVeutrophication
p1425
I2
sVclimate_change
p1426
I44
sg102
I4
sVarctic
p1427
I10
sVwildlife
p1428
I4
sVbear
p1429
I6
sg42
I14
sg43
I16
sVcorrosion
p1430
I2
sg669
I6
sVwater_pollution
p1431
I16
sg45
I80
sg332
I18
sg764
I10
sVclimate
p1432
I4
sg186
I4
sVbiodiversity
p1433
I2
sg831
I12
sg260
I8
sVred_sea
p1434
I4
sVnatural_disaster
p1435
I6
sg52
I12
sg53
I44
sg361
I4
sg157
I4
sg57
I4
ssVtemperate_zone
p1436
g2
(g3
tp1437
Rp1438
Vmountain
p1439
I6
sg368
I4
ssVcorrosion
p1440
g2
(g3
tp1441
Rp1442
g629
I12
sg850
I8
sVcorrosion
p1443
I232
sVmarine_environment
p1444
I8
sVfire
p1445
I2
sg821
I2
sVbear
p1446
I12
sVwater
p1447
I4
sg1197
I12
sVseal
p1448
I10
sVdust
p1449
I94
sVpollution
p1450
I4
ssVradioactive_effluent
p1451
g2
(g3
tp1452
Rp1453
Vwater
p1454
I2
ssVenvironmental_liability
p1455
g2
(g3
tp1456
Rp1457
g115
I4
ssVdegree_of_pollution
p1458
g2
(g3
tp1459
Rp1460
g1008
I4
ssVpollutant
p1461
g2
(g3
tp1462
Rp1463
g987
I16
sg246
I2
sVsurface_water
p1464
I10
sVacidification
p1465
I4
sVindustrial_waste
p1466
I38
sg1311
I10
sVradioactive_waste
p1467
I16
sg23
I30
sVseal
p1468
I4
sg370
I30
sVtoxic_substance
p1469
I24
sVindustrial_pollution
p1470
I4
sVglobal_warming
p1471
I3
sVhazardous_waste
p1472
I8
sVchemical_waste
p1473
I4
sg29
I28
sVenvironment
p1474
I4
sg113
I4
sVcyclone
p1475
I4
sg186
I98
sVwaste_management
p1476
I4
sVplant_life
p1477
I6
sVwatercourse
p1478
I6
sVdrinking_water
p1479
I6
sg276
I124
sVclimate_change
p1480
I6
sg480
I14
sVorganic_pollution
p1481
I8
sVused_oil
p1482
I4
sg67
I16
sVecosystem
p1483
I6
sg42
I34
sg885
I30
sVcorrosion
p1484
I6
sVcombustion_gases
p1485
I8
sg44
I376
sVwater_pollution
p1486
I4
sVwhale
p1487
I28
sVdesert
p1488
I4
sVpollutant
p1489
I592
sg130
I2
sVclimate
p1490
I4
sVgreenhouse_gas
p1491
I76
sVbiosphere
p1492
I6
sVerosion
p1493
I36
sVsewage_sludge
p1494
I6
sVhospital_waste
p1495
I6
sVacid_rain
p1496
I80
sg53
I648
sg114
I6
sVnoise_pollution
p1497
I6
sVpesticide_residue
p1498
I20
sg164
I6
sg57
I14
ssVmarsupial
p1499
g2
(g3
tp1500
Rp1501
g856
I4
sVisland
p1502
I8
sVdolphin
p1503
I16
sVbear
p1504
I18
sg248
I10
sVwolf
p1505
I16
sg1424
I6
sVwhale
p1506
I20
sg932
I14
sVmarsupial
p1507
I16
ssVthermal_discharge
p1508
g2
(g3
tp1509
Rp1510
g123
I4
ssVhospital_waste
p1511
g2
(g3
tp1512
Rp1513
g396
I6
ssVanimal_life
p1514
g2
(g3
tp1515
Rp1516
Vmarine_life
p1517
I4
sVwater
p1518
I16
sg233
I8
sg418
I10
sg6
I4
sVrodent
p1519
I56
sg74
I4
sVdolphin
p1520
I6
sVreptile
p1521
I18
sVbear
p1522
I6
sg1242
I6
sg629
I12
sg126
I8
sg435
I12
sg13
I6
sVseal
p1523
I22
sg331
I12
sg131
I26
sVplant_life
p1524
I10
sg239
I4
ssVplain
p1525
g2
(g3
tp1526
Rp1527
Vnational_park
p1528
I4
sg323
I63
sVclimate
p1529
I2
sg541
I6
sVclimate_change
p1530
I4
sVenvironment
p1531
I14
sg480
I8
sg494
I2
sVlake
p1532
I6
sVice
p1533
I4
sg52
I12
sg42
I4
sVflood
p1534
I3
sg41
I4
sg23
I2
sVplain
p1535
I26
sVcyclone
p1536
I4
sg931
I10
sVdrought
p1537
I2
sVdesert
p1538
I6
sg803
I12
ssVecological_balance
p1539
g2
(g3
tp1540
Rp1541
g123
I4
ssVnuisance
p1542
g2
(g3
tp1543
Rp1544
Vatmosphere
p1545
I16
sVnoise_level
p1546
I6
sg851
I6
sg1523
I12
sg977
I12
sVlake
p1547
I5
sg394
I24
sVenvironment
p1548
I32
sVflood
p1549
I12
sg186
I14
sg131
I10
sg276
I280
sVclimate_change
p1550
I8
sVfire
p1551
I10
sVstagnant_water
p1552
I4
sVbear
p1553
I4
sVwater
p1554
I14
sg126
I10
sg44
I62
sVwater_pollution
p1555
I4
sVnuisance
p1556
I4
sVpollutant
p1557
I2
sg433
I40
sVbad_weather
p1558
I4
sVdefoliation
p1559
I4
sVisland
p1560
I4
sg1021
I12
sVwolf
p1561
I52
sVnoise_pollution
p1562
I6
sg57
I30
ssVelectromagnetic_interference
p1563
g2
(g3
tp1564
Rp1565
g37
I8
ssVsensitive_area
p1566
g2
(g3
tp1567
Rp1568
Vsurface_water
p1569
I12
sVestuary
p1570
I4
sVcontinental_shelf
p1571
I4
sVsea
p1572
I14
sVglobal_warming
p1573
I4
sVnational_park
p1574
I38
sVmountain
p1575
I10
sVnature_reserve
p1576
I8
sVlake
p1577
I2
sg125
I6
sVclimate_change
p1578
I4
sVaegean_sea
p1579
I14
sVarctic
p1580
I2
sg12
I4
sVdesert
p1581
I6
sg67
I6
sVbaltic_sea
p1582
I10
sVisland
p1583
I4
sVsensitive_area
p1584
I4
sVprotected_area
p1585
I9
sVwatercourse
p1586
I4
sg351
I4
ssVwatercourse
p1587
g2
(g3
tp1588
Rp1589
g872
I4
sg199
I8
sg29
I24
sg52
I2
sVwater
p1590
I6
sVflood
p1591
I2
sVwatercourse
p1592
I28
sVpollution
p1593
I4
ssVagricultural_disaster
p1594
g2
(g3
tp1595
Rp1596
g530
I6
ssVisland
p1597
g2
(g3
tp1598
Rp1599
Vmediterranean_sea
p1600
I10
sVatmospheric_pollutant
p1601
I6
sg120
I2
sVionian_sea
p1602
I4
sg19
I10
sg346
I24
sVatmosphere
p1603
I6
sVcontinental_shelf
p1604
I4
sg851
I4
sVantarctica
p1605
I12
sVpacific_ocean
p1606
I4
sVenvironmental_impact
p1607
I8
sVsea
p1608
I14
sVseal
p1609
I24
sVnatural_resources
p1610
I2
sg720
I6
sVnational_park
p1611
I20
sg209
I74
sVnature_reserve
p1612
I10
sVacidification
p1613
I2
sg121
I16
sVatlantic_ocean
p1614
I12
sVlake
p1615
I22
sVice
p1616
I20
sVdesert
p1617
I8
sVenvironment
p1618
I30
sVflood
p1619
I10
sVcyclone
p1620
I10
sVmarine_life
p1621
I8
sg328
I2
sg131
I52
sVplant_life
p1622
I4
sg481
I4
sVdrinking_water
p1623
I4
sVclimate_change
p1624
I6
sg203
I4
sVaegean_sea
p1625
I4
sg345
I2
sg779
I6
sg369
I2
sg42
I28
sg885
I2
sVirish_sea
p1626
I4
sVdust
p1627
I6
sg700
I4
sg502
I10
sVearthquake
p1628
I4
sVpollutant
p1629
I6
sg233
I14
sVvolcanic_eruption
p1630
I2
sVindian_ocean
p1631
I8
sVecosystem
p1632
I18
sVred_sea
p1633
I4
sVnatural_disaster
p1634
I6
sVocean
p1635
I6
sg970
I22
sVisland
p1636
I3028
sg1061
I4
sVwaste_disposal
p1637
I4
sVpollution
p1638
I4
ssVenvironmental_standard
p1639
g2
(g3
tp1640
Rp1641
g42
I4
sg138
I4
sVseal
p1642
I10
ssVenvironmental_impact
p1643
g2
(g3
tp1644
Rp1645
Vdrinking_water
p1646
I4
sVsurface_water
p1647
I4
sVthermal_pollution
p1648
I6
sg35
I28
sVuse_of_water
p1649
I6
sVcost_of_pollution
p1650
I4
sVwater_resources
p1651
I6
sVelectronic_waste
p1652
I4
sg1021
I6
sVglobal_warming
p1653
I10
sVhazardous_waste
p1654
I4
sg28
I4
sg73
I4
sg270
I4
sg565
I4
sg113
I24
sVgreenhouse_gas
p1655
I6
sVwaste_management
p1656
I4
sg397
I6
sg452
I6
sg276
I96
sVclimate_change
p1657
I34
sg480
I4
sg49
I34
sVatmospheric_pollution
p1658
I6
sg42
I28
sg281
I10
sVdust
p1659
I8
sVwater_pollution
p1660
I8
sVdrought
p1661
I12
sVearthquake
p1662
I20
sg47
I12
sg48
I6
sg233
I8
sg186
I26
sg328
I10
sVclimate_change_policy
p1663
I4
sg164
I12
sg114
I4
sVnoise_pollution
p1664
I4
sg260
I4
sVacid_rain
p1665
I4
sVwaste_disposal
p1666
I4
sg57
I74
ssVatmospheric_pollutant
p1667
g2
(g3
tp1668
Rp1669
g1659
I2
sVozone
p1670
I14
sVgreenhouse_gas
p1671
I4
sVacid_rain
p1672
I3
ssVeutrophication
p1673
g2
(g3
tp1674
Rp1675
g136
I4
sg821
I2
sg281
I4
sVbaltic_sea
p1676
I4
sg541
I2
sVarctic
p1677
I4
sg29
I4
sg360
I2
sVsea
p1678
I4
sVwater_pollution
p1679
I8
sVpollution
p1680
I8
ssVindustrial_waste
p1681
g2
(g3
tp1682
Rp1683
Vdrinking_water
p1684
I10
sVindustrial_waste
p1685
I4
sVhospital_waste
p1686
I4
sVhazardous_waste
p1687
I8
sg260
I4
sVagricultural_waste
p1688
I6
sVsewage_sludge
p1689
I6
sg42
I4
sg145
I4
sVradioactive_waste
p1690
I6
sVchemical_waste
p1691
I4
sg44
I4
sg186
I32
sg164
I4
sVpollution
p1692
I6
ssVenvironmental_education
p1693
g2
(g3
tp1694
Rp1695
Vclimate_change
p1696
I4
ssVdolphin
p1697
g2
(g3
tp1698
Rp1699
Vmarine_life
p1700
I10
sg715
I54
sVnoise
p1701
I4
sVmonkey
p1702
I6
sVclimate_change
p1703
I6
sg11
I16
sVdolphin
p1704
I8
sg907
I2
sg371
I10
sg1433
I2
sg1135
I48
sVseal
p1705
I44
sVpacific_ocean
p1706
I12
sg541
I8
sg331
I10
sg131
I56
sg1213
I18
ssVenvironmental_policy
p1707
g2
(g3
tp1708
Rp1709
Vclimate_change_policy
p1710
I6
sg778
I6
sVclimate
p1711
I3
sg61
I4
sVclimate_change
p1712
I22
sg430
I4
sg45
I4
sVpollution
p1713
I4
sVwaste_management
p1714
I2
sVglobal_warming
p1715
I4
ssVenvironmental_protection
p1716
g2
(g3
tp1717
Rp1718
g1103
I6
sg703
I6
sVnoise
p1719
I4
sVsurface_water
p1720
I4
sVclimate_change
p1721
I4
sVenvironmental_monitoring
p1722
I4
sVenvironmental_impact
p1723
I4
sVwater_protection
p1724
I4
sVglobal_warming
p1725
I4
sg73
I4
sVocean
p1726
I6
sg42
I4
sVwater_resources
p1727
I4
sg238
I6
sVpollution_control
p1728
I12
sVnatural_resources
p1729
I2
sVwater_pollution
p1730
I10
sg396
I6
sVwaste_management
p1731
I16
sVwaste_disposal
p1732
I4
sg57
I4
ssVwater_resources
p1733
g2
(g3
tp1734
Rp1735
Vdrinking_water
p1736
I4
sVenvironment
p1737
I2
sg49
I2
sVsurface_water
p1738
I2
sg260
I4
sg29
I14
sg168
I2
sg52
I2
sg42
I14
sg113
I2
sg114
I12
sVsea
p1739
I2
sg45
I2
sg328
I2
ssVantarctica
p1740
g2
(g3
tp1741
Rp1742
g75
I2
sVcontinental_shelf
p1743
I4
sg1605
I116
sVpacific_ocean
p1744
I4
sg128
I8
sg1523
I12
sVmountain
p1745
I4
sVice
p1746
I4
sg360
I10
sVatlantic_ocean
p1747
I4
sVbird
p1748
I6
sVclimate_change
p1749
I18
sg1445
I2
sVarctic
p1750
I16
sg1429
I4
sg347
I16
sVdust
p1751
I6
sVwhale
p1752
I6
sg1242
I2
sg427
I8
sVisland
p1753
I70
sVecosystem
p1754
I12
ssVsaltwater
p1755
g2
(g3
tp1756
Rp1757
Vindustrial_waste
p1758
I4
sVlake
p1759
I4
sg907
I16
sVwater
p1760
I4
sg513
I4
sVwaste
p1761
I4
ssVradioactive_waste
p1762
g2
(g3
tp1763
Rp1764
g74
I4
sg186
I14
sg803
I4
sVhazardous_waste
p1765
I4
ssVoil_pollution
p1766
g2
(g3
tp1767
Rp1768
g87
I4
ssVmarine_ecosystem
p1769
g2
(g3
tp1770
Rp1771
g452
I4
sg883
I6
sVbaltic_sea
p1772
I4
sg281
I4
sg247
I20
sVclimate_change
p1773
I4
sg260
I20
sg29
I4
sVcontinental_shelf
p1774
I6
sg12
I6
sg57
I4
sVbiotope
p1775
I4
sg23
I6
sg129
I4
sg331
I8
sVmarine_mammal
p1776
I6
sg35
I8
sVbird
p1777
I4
sVglobal_warming
p1778
I4
ssVnatural_hazard
p1779
g2
(g3
tp1780
Rp1781
Vsea
p1782
I6
sVvolcanic_eruption
p1783
I58
sVglobal_warming
p1784
I10
sg488
I6
sVnatural_disaster
p1785
I4
sg28
I6
sVice
p1786
I6
sg295
I740
sg113
I646
sg33
I98
sg328
I42
sVclimate_change
p1787
I12
sg102
I32
sg715
I4
sg103
I12
sg885
I6
sg45
I166
sVdesert
p1788
I6
sg49
I8
sg301
I4
sg367
I4
sg1213
I2
ssVmountain
p1789
g2
(g3
tp1790
Rp1791
Vantarctica
p1792
I4
sg204
I2
sVwater_management
p1793
I4
sVnational_park
p1794
I26
sVmountain
p1795
I370
sVnature_reserve
p1796
I4
sVlake
p1797
I34
sVice
p1798
I84
sVearthquake
p1799
I2
sg421
I4
sVflood
p1800
I3
sVwaste
p1801
I18
sg1104
I6
sVbird
p1802
I58
sVnatural_hazard
p1803
I36
sVclimate_change
p1804
I4
sg690
I4
sg715
I2
sVbear
p1805
I4
sg541
I8
sg42
I4
sVinsect
p1806
I14
sVdrought
p1807
I32
sVdesert
p1808
I4
sg703
I4
sVbiodiversity
p1809
I4
sVisland
p1810
I14
sVocean
p1811
I68
sVwolf
p1812
I64
sVplain
p1813
I138
sVpollution
p1814
I8
ssVgreenhouse_effect
p1815
g2
(g3
tp1816
Rp1817
Vgreenhouse_effect
p1818
I4
sg1545
I6
sVgreenhouse_gas
p1819
I2
sVclimate_change
p1820
I4
sVglobal_warming
p1821
I12
ssVwater_protection
p1822
g2
(g3
tp1823
Rp1824
Vsensitive_area
p1825
I4
ssVexploitation_of_resources
p1826
g2
(g3
tp1827
Rp1828
g136
I2
sg80
I2
sVmineral_resources
p1829
I2
sVrenewable_resources
p1830
I2
ssVdomestic_waste
p1831
g2
(g3
tp1832
Rp1833
g136
I4
sg396
I6
sVagricultural_waste
p1834
I4
sVhazardous_waste
p1835
I6
ssVfire
p1836
g2
(g3
tp1837
Rp1838
g1203
I16
sg75
I2
sVfire_protection
p1839
I6
sg1311
I8
sVantarctica
p1840
I2
sg1314
I2
sVvolcanic_eruption
p1841
I4
sg999
I16
sVnational_park
p1842
I8
sg881
I2
sg211
I12
sVnatural_disaster
p1843
I12
sVlake
p1844
I42
sVice
p1845
I48
sg870
I32
sg1618
I18
sg1179
I6
sg924
I16
sVwaste
p1846
I30
sg384
I8
sg131
I18
sVnoise
p1847
I26
sVclimate_change
p1848
I4
sg947
I86
sVarctic
p1849
I8
sg124
I24
sg1334
I4
sg696
I24
sg1430
I2
sVdust
p1850
I42
sVdrought
p1851
I8
sVearthquake
p1852
I6
sg42
I16
sg427
I28
sg872
I4
sg260
I30
sVocean
p1853
I8
sVozone
p1854
I4
sVwolf
p1855
I4
sg11
I4
sg87
I40
ssVmineral_resources
p1856
g2
(g3
tp1857
Rp1858
Vwater_resources
p1859
I2
sVgroundwater
p1860
I2
sVcontinental_shelf
p1861
I2
ssVdisaster_area
p1862
g2
(g3
tp1863
Rp1864
g113
I4
sg701
I4
sg295
I6
sVdisaster_area
p1865
I4
sg367
I4
ssVwater_pollutant
p1866
g2
(g3
tp1867
Rp1868
Vwater_pollutant
p1869
I4
sVozone
p1870
I4
sVorganic_pollution
p1871
I4
sVpollution
p1872
I4
ssVnon-ionising_radiation
p1873
g2
(g3
tp1874
Rp1875
g61
I2
ssVgreenhouse_gas
p1876
g2
(g3
tp1877
Rp1878
Vatmosphere
p1879
I36
sg23
I2
sVglobal_warming
p1880
I8
sVgreenhouse_effect
p1881
I4
sg1474
I11
sg115
I2
sg222
I2
sVclimate_change
p1882
I4
sVenvironmental_protection
p1883
I2
sg42
I12
sVemission_trading
p1884
I3
sVwater_pollution
p1885
I2
sg45
I2
sVpollutant
p1886
I10
sg48
I2
sg868
I5
sVgreenhouse_gas
p1887
I4
sg74
I2
sg52
I10
sg53
I58
sVwaste_disposal
p1888
I4
sg57
I2
ssVerosion
p1889
g2
(g3
tp1890
Rp1891
g23
I4
sg1277
I20
sg1759
I4
sg270
I4
sg360
I22
sVflood
p1892
I10
sg793
I10
sVclimate_change
p1893
I4
sVfire
p1894
I30
sg1493
I120
sg1186
I6
sVinsect
p1895
I2
sg1433
I8
sg44
I8
sg502
I6
sg46
I8
sg42
I8
sVclimate
p1896
I2
sg405
I4
sVisland
p1897
I2
sg1058
I32
sg541
I2
sVacid_rain
p1898
I4
sg87
I6
ssVplant_life
p1899
g2
(g3
tp1900
Rp1901
g103
I4
sg233
I4
sVanimal_life
p1902
I6
sg367
I4
sg346
I4
sg907
I8
sg608
I6
sg131
I58
sg126
I4
sVprotected_species
p1903
I2
sg894
I4
sVmarine_mammal
p1904
I64
sg870
I12
sg87
I4
ssVdegradation_of_the_environment
p1905
g2
(g3
tp1906
Rp1907
g884
I4
sVclimate_change
p1908
I6
sg611
I12
ssVclimatic_zone
p1909
g2
(g3
tp1910
Rp1911
Vmountain
p1912
I16
sVplain
p1913
I16
sVdesert
p1914
I6
sVecosystem
p1915
I4
ssVarctic
p1916
g2
(g3
tp1917
Rp1918
g625
I8
sg75
I2
sVcontinental_shelf
p1919
I4
sg202
I18
sVpacific_ocean
p1920
I4
sg898
I12
sg129
I18
sVnatural_resources
p1921
I4
sVwhale
p1922
I4
sVglobal_warming
p1923
I26
sg1118
I4
sVice
p1924
I4
sVenvironment
p1925
I16
sVbiotope
p1926
I8
sVacidification
p1927
I6
sg932
I6
sVarctic_ocean
p1928
I12
sVclimate_change
p1929
I4
sVarctic
p1930
I148
sVbear
p1931
I38
sg430
I24
sg799
I6
sVdust
p1932
I4
sVdrought
p1933
I12
sVdesert
p1934
I4
sg703
I20
sg367
I4
sVocean
p1935
I12
sg170
I4
sg127
I4
sVlynx
p1936
I4
sVpollution
p1937
I6
ssVatmospheric_pollution
p1938
g2
(g3
tp1939
Rp1940
g170
I8
sVacid_rain
p1941
I12
sVclimate_change
p1942
I4
ssVdeforestation
p1943
g2
(g3
tp1944
Rp1945
Vdeforestation
p1946
I16
sg821
I10
sg281
I4
sg360
I40
sg102
I4
sg74
I4
sVdesertification
p1947
I2
sVwater
p1948
I4
sVflood
p1949
I6
sVprotected_area
p1950
I8
sg45
I12
sg87
I2
sg328
I12
sVglobal_warming
p1951
I4
ssVinsect
p1952
g2
(g3
tp1953
Rp1954
Vwhale
p1955
I6
sg120
I62
sg247
I4
sg346
I8
sg851
I46
sg128
I8
sg815
I4
sg417
I32
sg1199
I20
sg73
I16
sVenvironment
p1956
I10
sVflood
p1957
I20
sVwaste
p1958
I4
sg219
I2
sg131
I386
sg365
I22
sVfire
p1959
I6
sg109
I10
sg226
I10
sg42
I32
sVinsect
p1960
I2
sVdust
p1961
I94
sg45
I80
sg482
I8
sVmarsupial
p1962
I8
sg703
I12
sg781
I4
sg157
I6
sg435
I6
sg541
I10
sg87
I8
ssVnorth_sea
p1963
g2
(g3
tp1964
Rp1965
Vmediterranean_sea
p1966
I4
sg454
I6
sVenglish_channel
p1967
I4
sg1518
I8
sg128
I12
sg727
I8
sVnorth_sea
p1968
I6
sg743
I4
ssVdrought
p1969
g2
(g3
tp1970
Rp1971
Vglobal_warming
p1972
I10
sVmountain
p1973
I4
sVnatural_disaster
p1974
I6
sg28
I4
sg1118
I4
sVearthquake
p1975
I16
sg360
I10
sVflood
p1976
I92
sVcyclone
p1977
I40
sVwaste
p1978
I4
sg328
I6
sVclimate_change
p1979
I22
sg1185
I84
sVdeforestation
p1980
I20
sg44
I4
sVdrought
p1981
I8
sg482
I14
sg42
I4
sVclimate
p1982
I22
sVdefoliation
p1983
I6
sVplain
p1984
I44
sg541
I2
sg1814
I4
ssVdesert
p1985
g2
(g3
tp1986
Rp1987
Vreptile
p1988
I12
sVrodent
p1989
I8
sg44
I2
sVantarctica
p1990
I8
sVpacific_ocean
p1991
I4
sg1135
I100
sVmountain
p1992
I26
sVpolar_region
p1993
I4
sg73
I4
sVice
p1994
I2
sVenvironment
p1995
I56
sg115
I12
sg397
I8
sg480
I36
sg995
I28
sg931
I2
sg74
I20
sg42
I16
sg885
I6
sVnorth_sea
p1996
I4
sg1661
I24
sVdesert
p1997
I110
sg49
I4
sg969
I2
sg1053
I4
sVred_sea
p1998
I4
sVocean
p1999
I334
sg239
I12
sg240
I2
ssVwhale
p2000
g2
(g3
tp2001
Rp2002
Vmarine_life
p2003
I4
sg313
I78
sVrodent
p2004
I10
sg22
I8
sg162
I40
sg205
I30
sVglobal_warming
p2005
I12
sg1093
I4
sg131
I4
sVmarine_mammal
p2006
I10
sg365
I10
sVclimate_change
p2007
I30
sg122
I2
sg1429
I4
sVwater
p2008
I18
sVinsect
p2009
I16
sVwater_pollution
p2010
I6
sVwhale
p2011
I2
sg715
I72
sg494
I2
sg765
I2
sVmarine_pollution
p2012
I6
sg57
I12
ssVred_sea
p2013
g2
(g3
tp2014
Rp2015
g136
I6
sVsea
p2016
I4
sVindian_ocean
p2017
I4
sg1021
I6
ssVpolar_region
p2018
g2
(g3
tp2019
Rp2020
Vclimate
p2021
I4
sVarctic_ocean
p2022
I8
sVclimate_change
p2023
I12
sVecosystem
p2024
I8
sg1378
I4
sVlake
p2025
I4
sg1616
I8
sVantarctica
p2026
I44
sg894
I4
ssVnon-recoverable_waste
p2027
g2
(g3
tp2028
Rp2029
g186
I2
ssVocean
p2030
g2
(g3
tp2031
Rp2032
Vmarine_life
p2033
I28
sVmediterranean_sea
p2034
I16
sVatmosphere
p2035
I6
sVsurface_water
p2036
I4
sg247
I58
sVblack_sea
p2037
I10
sg313
I2
sVindustrial_waste
p2038
I4
sVcontinental_shelf
p2039
I14
sVvolcanic_eruption
p2040
I2
sVantarctica
p2041
I104
sVpacific_ocean
p2042
I26
sg1197
I12
sg23
I164
sg205
I10
sVmarine_ecosystem
p2043
I6
sVenvironmental_protection
p2044
I6
sVglobal_warming
p2045
I8
sVmountain
p2046
I42
sVatmospheric_conditions
p2047
I2
sVatlantic_ocean
p2048
I36
sVlake
p2049
I4
sg270
I4
sg1808
I68
sg565
I8
sVchemical_pollution
p2050
I4
sVcyclone
p2051
I24
sVwolf
p2052
I6
sVwaste
p2053
I26
sg35
I74
sVmarine_pollution
p2054
I8
sVmarine_mammal
p2055
I10
sVarctic_ocean
p2056
I2
sg276
I6
sVclimate_change
p2057
I10
sVcaspian_sea
p2058
I10
sVarctic
p2059
I32
sVerosion
p2060
I4
sg715
I12
sVbear
p2061
I3
sg48
I12
sVantarctic_ocean
p2062
I4
sVirish_sea
p2063
I8
sg331
I42
sVearthquake
p2064
I6
sg42
I24
sg49
I6
sg872
I4
sVbaltic_sea
p2065
I18
sVindian_ocean
p2066
I30
sVflood
p2067
I2
sg831
I4
sg260
I22
sVred_sea
p2068
I26
sVpolar_region
p2069
I22
sVocean
p2070
I48
sg1748
I2
sVenvironmental_economics
p2071
I4
sg221
I2
sg832
I32
sg351
I12
sg57
I12
ssVsoil_pollution
p2072
g2
(g3
tp2073
Rp2074
Vwaste_disposal
p2075
I6
ssVwastewater
p2076
g2
(g3
tp2077
Rp2078
Vdrinking_water
p2079
I6
sg360
I2
sVindustrial_waste
p2080
I4
sVsurface_water
p2081
I4
sg541
I2
sVsewage_sludge
p2082
I4
sg379
I8
sg42
I12
sVgroundwater
p2083
I18
sg186
I12
sVwastewater
p2084
I128
sg47
I4
ss.