(dp0
Vmammalogy
p1
ccollections
defaultdict
p2
(c__builtin__
int
p3
tp4
Rp5
Vzoology
p6
I10
sVentomology
p7
I8
sVecology
p8
I8
sVsystematics
p9
I1
sVphysiology
p10
I2
ssVnuclear_medicine
p11
g2
(g3
tp12
Rp13
Vbiology
p14
I4
sVradiochemistry
p15
I4
ssVtectonics
p16
g2
(g3
tp17
Rp18
Vscience
p19
I4
sVgeophysics
p20
I6
sVseismology
p21
I2
sVgeology
p22
I5
ssVmorphology
p23
g2
(g3
tp24
Rp25
Vanatomy
p26
I12
sVbiology
p27
I6
sVforestry
p28
I4
sVgrammar
p29
I44
sVlinguistics
p30
I56
sVgeometry
p31
I8
sg19
I8
sg7
I2
sg9
I1
sVhematology
p32
I2
sg6
I6
sVsyntax
p33
I2
sVphonology
p34
I8
sVmicrobiology
p35
I2
sVanalysis
p36
I4
sVmorphology
p37
I54
sVsociolinguistics
p38
I2
sVchemistry
p39
I8
sVbotany
p40
I4
sg10
I12
sVsemantics
p41
I8
ssVthermochemistry
p42
g2
(g3
tp43
Rp44
Vchemistry
p45
I2
ssVbiometrics
p46
g2
(g3
tp47
Rp48
Vgeometry
p49
I4
sVstatistics
p50
I2
sg36
I1
ssVdeixis
p51
g2
(g3
tp52
Rp53
g29
I2
ssVgeography
p54
g2
(g3
tp55
Rp56
Vbiogeography
p57
I4
sVbotany
p58
I2
sVtopography
p59
I2
sVhydrography
p60
I4
sVmineralogy
p61
I4
sVgeopolitics
p62
I4
sVecology
p63
I4
sVpolitics
p64
I18
sVdynamics
p65
I2
sVgeography
p66
I20
sVgenomics
p67
I4
sVsociology
p68
I12
sVoceanography
p69
I4
sVpsychology
p70
I4
sVgeology
p71
I4
sVforestry
p72
I2
sVeconomic_geography
p73
I12
sVsocial_science
p74
I16
sVlinguistics
p75
I1
sVphysical_geography
p76
I4
sVmemory
p77
I8
sVmedicine
p78
I2
sVmathematics
p79
I2
sVcalculus
p80
I8
sVbiology
p81
I4
sVfinance
p82
I16
sValgebra
p83
I8
sVanthropology
p84
I8
sVstatistics
p85
I1
sVastronomy
p86
I4
sVtopology
p87
I4
sVclimatology
p88
I2
sVmeteorology
p89
I2
sVmythology
p90
I4
sVgeometry
p91
I4
sVscience
p92
I90
sVeconomics
p93
I8
sVanalysis
p94
I4
sVdemography
p95
I2
sVchemistry
p96
I20
ssVtherapeutics
p97
g2
(g3
tp98
Rp99
Vnutrition
p100
I2
sVbiology
p101
I10
sVtherapeutics
p102
I14
sVpediatrics
p103
I2
sVpharmacology
p104
I2
sVbiomedicine
p105
I1
sVendocrinology
p106
I2
sVoncology
p107
I5
sVpsychiatry
p108
I4
sVvirology
p109
I5
sVmedicine
p110
I2
sVbiotechnology
p111
I1
ssVmicroscopic_anatomy
p112
g2
(g3
tp113
Rp114
Vcytology
p115
I4
sVhistology
p116
I4
ssVmetallurgy
p117
g2
(g3
tp118
Rp119
g19
I14
sg36
I2
sVmetallurgy
p120
I4
sg78
I4
sVelectronics
p121
I6
sVcrystallography
p122
I2
ssVgeopolitics
p123
g2
(g3
tp124
Rp125
Veconomics
p126
I22
ssVbioclimatology
p127
g2
(g3
tp128
Rp129
g8
I2
ssVstatics
p130
g2
(g3
tp131
Rp132
Vmechanics
p133
I6
sVphysics
p134
I6
ssVpharmacology
p135
g2
(g3
tp136
Rp137
Vnutrition
p138
I12
sVbiology
p139
I4
sVradiology
p140
I8
sVpediatrics
p141
I8
sVpsychology
p142
I26
sVpharmacology
p143
I6
sg105
I4
sg19
I112
sVmemory
p144
I24
sVanesthesiology
p145
I6
sVgenomics
p146
I1
sVpharmacy
p147
I2
sVpharmacogenetics
p148
I1
sVneuroscience
p149
I2
sVtherapeutics
p150
I2
sVtoxicology
p151
I4
sVmedicine
p152
I4
sVpharmacokinetics
p153
I8
sVchemistry
p154
I4
ssVgeology
p155
g2
(g3
tp156
Rp157
Vbotany
p158
I4
sVtopography
p159
I4
sVmineralogy
p160
I8
sVpetrology
p161
I20
sVstratigraphy
p162
I4
sg6
I2
sVvolcanology
p163
I4
sVtectonics
p164
I5
sVmorphology
p165
I4
sVcrystallography
p166
I4
sVgeography
p167
I4
sVoceanography
p168
I16
sVgeology
p169
I12
sVgeochemistry
p170
I4
sVgeodesy
p171
I8
sVmathematics
p172
I2
sVearth_science
p173
I6
sVbiology
p174
I4
sVpaleontology
p175
I4
sVanthropology
p176
I8
sVgeophysics
p177
I8
sg21
I12
sVethnography
p178
I4
sVastronomy
p179
I10
sVpetroleum_geology
p180
I4
sVclimatology
p181
I4
sVhydrology
p182
I4
sg91
I2
sVscience
p183
I336
sVmeteorology
p184
I8
sVpaleogeology
p185
I4
sVanalysis
p186
I2
sVchemistry
p187
I2
sVphysics
p188
I10
ssVquantum_physics
p189
g2
(g3
tp190
Rp191
Vquantum_mechanics
p192
I2
sValgebra
p193
I2
sVcosmology
p194
I2
sVstatistical_mechanics
p195
I2
sVelectronics
p196
I2
sVoptics
p197
I4
sVelectromagnetism
p198
I2
ssVpaleopathology
p199
g2
(g3
tp200
Rp201
g36
I4
ssVhematology
p202
g2
(g3
tp203
Rp204
Voncology
p205
I4
sVcytology
p206
I8
sg19
I10
sg36
I2
sg78
I12
sVendocrinology
p207
I8
sVmorphology
p208
I2
sVtoxicology
p209
I8
sVpathology
p210
I6
sVchemistry
p211
I4
ssVeugenics
p212
g2
(g3
tp213
Rp214
Vbiology
p215
I4
sVsociology
p216
I4
sVscience
p217
I4
sVeugenics
p218
I32
sVanatomy
p219
I4
sVhygiene
p220
I26
sVmedicine
p221
I4
sVmathematics
p222
I4
ssVmedicine
p223
g2
(g3
tp224
Rp225
Voncology
p226
I18
sVgynecology
p227
I12
sVdietetics
p228
I12
sVmicrobiology
p229
I28
sVobstetrics
p230
I28
sVmorphology
p231
I12
sVgeography
p232
I4
sg102
I2
sVserology
p233
I2
sVpharmacy
p234
I50
sVmetallurgy
p235
I12
sVfractal_geometry
p236
I4
sVfinance
p237
I16
sVpharmacology
p238
I18
sg32
I12
sVophthalmology
p239
I20
sVgeriatrics
p240
I4
sVimmunology
p241
I28
sVvirology
p242
I20
sVdemography
p243
I4
sVbacteriology
p244
I4
sVrheumatology
p245
I4
sVneurology
p246
I16
sVhistology
p247
I4
sVdermatology
p248
I20
sVsurgery
p249
I64
sg122
I2
sVneonatology
p250
I2
sVsociology
p251
I4
sVgenetics
p252
I12
sVpsychology
p253
I20
sVnuclear_medicine
p254
I4
sVclinical_psychology
p255
I4
sVmedicine
p256
I56
sVelectronics
p257
I8
sg215
I12
sVpediatrics
p258
I12
sVbiomedicine
p259
I4
sg176
I8
sVepidemiology
p260
I20
sg85
I2
sVphysiology
p261
I32
sVmolecular_biology
p262
I4
sg49
I4
sVeconomics
p263
I4
sVnephrology
p264
I16
sg148
I4
sVbiomedical_science
p265
I12
sVtoxicology
p266
I8
sVinternal_medicine
p267
I24
sVbotany
p268
I4
sVemergency_medicine
p269
I4
sVproteomics
p270
I2
sVapplied_psychology
p271
I2
sVaudiology
p272
I8
sVhygiene
p273
I14
sg67
I3
sVradiology
p274
I16
sVurology
p275
I4
sVneurobiology
p276
I2
sVorthopedics
p277
I8
sVsocial_science
p278
I2
sg77
I18
sg100
I48
sVcardiology
p279
I40
sVneurophysiology
p280
I2
sVdentistry
p281
I68
sVpsychotherapy
p282
I16
sVsemantics
p283
I20
sVsports_medicine
p284
I6
sVscience
p285
I44
sVkinesiology
p286
I4
sVmythology
p287
I4
sVnumerical_analysis
p288
I4
sVpodiatry
p289
I10
sVmacrobiotics
p290
I4
sVendocrinology
p291
I4
sVgenetic_engineering
p292
I8
sVdental_surgery
p293
I8
sVpolitics
p294
I20
sVpathology
p295
I28
sg65
I1
sVbiochemistry
p296
I32
sVforestry
p297
I8
sVmathematics
p298
I32
sVgastroenterology
p299
I20
sVnatural_history
p300
I4
sVmolecular_genetics
p301
I4
sVanesthesiology
p302
I4
sVbiophysics
p303
I2
sVanatomy
p304
I20
sVveterinary_medicine
p305
I20
sVneuroscience
p306
I14
sVastronomy
p307
I8
sVcytogenetics
p308
I2
sVanalysis
p309
I16
sVreflexology
p310
I2
sVpsychiatry
p311
I28
sVbiotechnology
p312
I24
sVchemistry
p313
I18
sVphysics
p314
I8
ssVophthalmology
p315
g2
(g3
tp316
Rp317
Vurology
p318
I2
sg19
I4
sg277
I1
sg78
I8
sg103
I4
sVsurgery
p319
I4
ssVpaleoanthropology
p320
g2
(g3
tp321
Rp322
g84
I6
ssVsyntax
p323
g2
(g3
tp324
Rp325
g30
I88
sg38
I2
sVgrammar
p326
I4
sVpsycholinguistics
p327
I2
sg36
I2
sVsyntax
p328
I400
sVmemory
p329
I4
sg231
I2
sVmathematics
p330
I8
sVsemantics
p331
I30
ssVelectronics
p332
g2
(g3
tp333
Rp334
Vtaxonomy
p335
I4
sVbiology
p336
I12
sVacoustics
p337
I2
sVavionics
p338
I24
sg82
I8
sVpneumatics
p339
I4
sg217
I22
sVphysics
p340
I2
sVanalysis
p341
I3
sVcryogenics
p342
I1
sVbiotechnology
p343
I12
sVmemory
p344
I1
sVmedicine
p345
I4
sVmathematics
p346
I2
sVelectronics
p347
I8
sVchemistry
p348
I8
sVoptics
p349
I2
sVgeography
p350
I12
ssVparticle_physics
p351
g2
(g3
tp352
Rp353
g217
I2
sVquantum_chromodynamics
p354
I2
sVquantum_electrodynamics
p355
I2
sg340
I2
ssVoceanography
p356
g2
(g3
tp357
Rp358
g146
I4
sg336
I14
sVecology
p359
I4
sVoceanography
p360
I4
sVgeology
p361
I16
sg19
I4
sg184
I8
sVsystematics
p362
I4
sg36
I8
sg171
I4
sg172
I4
sg45
I4
sg134
I2
sg10
I4
sg167
I4
ssVvirology
p363
g2
(g3
tp364
Rp365
Vbiology
p366
I8
sg150
I5
sVgenetics
p367
I12
sVvirology
p368
I4
sg35
I38
sVepidemiology
p369
I4
sVmolecular_biology
p370
I8
sg19
I14
sg78
I4
ssVphonology
p371
g2
(g3
tp372
Rp373
Vmorphology
p374
I4
sg75
I87
sVgrammar
p375
I38
sg38
I2
ssVoptics
p376
g2
(g3
tp377
Rp378
Vholography
p379
I13
sg134
I2
sVcatoptrics
p380
I4
sVelectromagnetism
p381
I1
sVlife_science
p382
I10
sg36
I3
sVmagnetism
p383
I2
sg50
I2
sVbiomedical_science
p384
I3
sVscience
p385
I25
sg330
I5
sVelectronics
p386
I6
sg307
I3
sVoptics
p387
I140
sVsurgery
p388
I2
sg45
I4
ssVbiogeography
p389
g2
(g3
tp390
Rp391
g40
I6
sg366
I6
sg8
I8
sg19
I8
sg9
I1
sVherpetology
p392
I2
sg167
I2
ssVaeronautics
p393
g2
(g3
tp394
Rp395
Vmechanics
p396
I1
sg19
I2
sg196
I4
sVgeography
p397
I12
ssVholography
p398
g2
(g3
tp399
Rp400
Vscience
p401
I4
sVholography
p402
I16
ssVpsycholinguistics
p403
g2
(g3
tp404
Rp405
g30
I19
sg142
I2
sVsyntax
p406
I2
ssVastrometry
p407
g2
(g3
tp408
Rp409
g179
I10
ssVneuropsychiatry
p410
g2
(g3
tp411
Rp412
Vpsychiatry
p413
I6
sVneurology
p414
I4
ssVsurgery
p415
g2
(g3
tp416
Rp417
Voncology
p418
I2
sg227
I8
sVdietetics
p419
I8
sVdentistry
p420
I4
sVpodiatry
p421
I4
sVdental_surgery
p422
I12
sg246
I8
sVobstetrics
p423
I14
sg149
I4
sVdermatology
p424
I4
sVpathology
p425
I4
sVsurgery
p426
I8
sVtraumatology
p427
I4
sVorthodontics
p428
I12
sVradiology
p429
I20
sVgenetics
p430
I4
sVorthopedics
p431
I12
sVneonatology
p432
I4
sg77
I12
sVmedicine
p433
I8
sg138
I16
sg141
I2
sVfinance
p434
I4
sVcardiology
p435
I4
sg304
I4
sVendodontics
p436
I4
sVophthalmology
p437
I12
sVveterinary_medicine
p438
I4
sVurology
p439
I8
sVpsychotherapy
p440
I8
sVphysiology
p441
I4
sVperiodontics
p442
I1
sVotology
p443
I4
sVscience
p444
I24
sVmeteorology
p445
I8
sg341
I14
sVnephrology
p446
I4
sVoptics
p447
I4
sVinternal_medicine
p448
I4
ssVcrystallography
p449
g2
(g3
tp450
Rp451
g45
I2
sVmineralogy
p452
I4
sVbiochemistry
p453
I4
sg19
I2
sg303
I1
sVmetallurgy
p454
I2
sg20
I2
sg78
I2
sg65
I1
sVcrystallography
p455
I4
sg134
I6
ssVtraumatology
p456
g2
(g3
tp457
Rp458
Vsurgery
p459
I2
ssVichthyology
p460
g2
(g3
tp461
Rp462
g7
I8
sVtaxonomy
p463
I4
sg215
I8
sVbiosystematics
p464
I4
sg19
I4
ssVorthodontics
p465
g2
(g3
tp466
Rp467
Vorthodontics
p468
I12
sVdentistry
p469
I9
ssVintegral_calculus
p470
g2
(g3
tp471
Rp472
Vsocial_science
p473
I4
sVlife_science
p474
I6
ssVpure_mathematics
p475
g2
(g3
tp476
Rp477
Vcalculus
p478
I4
sVhyperbolic_geometry
p479
I4
sValgebra
p480
I24
sVgeometry
p481
I20
sg309
I32
sVlinear_algebra
p482
I12
sVset_theory
p483
I4
sVgroup_theory
p484
I24
sVarithmetic
p485
I6
sVtopology
p486
I32
ssVclinical_psychology
p487
g2
(g3
tp488
Rp489
Vcomputational_linguistics
p490
I4
ssVgeochemistry
p491
g2
(g3
tp492
Rp493
g22
I34
sVpetrology
p494
I4
sg19
I42
sg452
I4
sg36
I12
sVthermodynamics
p495
I4
sVvolcanology
p496
I4
sg20
I2
sg45
I2
ssVnegative_correlation
p497
g2
(g3
tp498
Rp499
Vcorrelation
p500
I4
ssVpediatrics
p501
g2
(g3
tp502
Rp503
g107
I2
sVpediatrics
p504
I20
sVcardiology
p505
I8
sVemergency_medicine
p506
I4
sg19
I8
sVrheumatology
p507
I20
sVnephrology
p508
I4
sg108
I4
sg149
I2
sVgenetics
p509
I4
sVneurology
p510
I4
sVobstetrics
p511
I1
sVdentistry
p512
I4
sVmedicine
p513
I4
sg275
I8
sg319
I4
sVneonatology
p514
I1
ssVbiosystematics
p515
g2
(g3
tp516
Rp517
Vichthyology
p518
I1
ssVanthropology
p519
g2
(g3
tp520
Rp521
g8
I12
sVphysical_anthropology
p522
I8
sVneurology
p523
I4
sVzoology
p524
I12
sVpolitics
p525
I4
sVgeography
p526
I4
sVlinguistics
p527
I8
sVsociology
p528
I4
sg367
I8
sVpsychology
p529
I4
sVpaleobiology
p530
I4
sVarcheology
p531
I4
sVprimatology
p532
I4
sVmemory
p533
I2
sg78
I4
sVbiology
p534
I6
sVsocial_anthropology
p535
I8
sVosteology
p536
I4
sVanthropology
p537
I4
sg369
I2
sVethnography
p538
I28
sVpaleoanthropology
p539
I6
sg304
I10
sVethnology
p540
I4
sVscience
p541
I108
sVeconomics
p542
I12
sg9
I1
sVanalysis
p543
I10
sVcosmology
p544
I4
sVstructuralism
p545
I4
sg95
I4
sg108
I8
sg45
I2
ssVmagnetism
p546
g2
(g3
tp547
Rp548
g396
I3
sg452
I4
sg342
I2
sVelectrostatics
p549
I4
sg134
I38
sVmagnetism
p550
I20
sg20
I2
sg19
I8
sVbiotechnology
p551
I4
sVoptics
p552
I4
sVelectromagnetism
p553
I2
ssVsociobiology
p554
g2
(g3
tp555
Rp556
Vzoology
p557
I8
sg8
I2
sVpsychology
p558
I6
ssVphysiology
p559
g2
(g3
tp560
Rp561
g40
I14
sVecology
p562
I2
sVendocrinology
p563
I6
sg272
I4
sg6
I6
sg273
I8
sVmammalogy
p564
I2
sVhistology
p565
I4
sg149
I4
sg208
I12
sVsurgery
p566
I6
sg425
I4
sg526
I8
sg105
I4
sVneuroanatomy
p567
I16
sVpsychology
p568
I6
sg276
I4
sVbiochemistry
p569
I12
sVcardiology
p570
I2
sVmicrobiology
p571
I4
sVdecomposition
p572
I4
sg329
I4
sVmedicine
p573
I4
sVembryology
p574
I4
sVnutrition
p575
I36
sg215
I120
sVpharmacology
p576
I4
sg146
I1
sVneurophysiology
p577
I4
sg7
I2
sg145
I6
sVbiophysics
p578
I8
sVanatomy
p579
I12
sg65
I2
sg111
I2
sVgenetics
p580
I4
sVphysiology
p581
I8
sg392
I2
sVmolecular_biology
p582
I8
sVcytology
p583
I16
sVoceanography
p584
I4
sg217
I236
sVanalysis
p585
I8
sVkinesiology
p586
I2
sg244
I2
sVtoxicology
p587
I2
sg96
I16
sg340
I6
ssVtopology
p588
g2
(g3
tp589
Rp590
g85
I2
sVfinance
p591
I6
sValgebra
p592
I8
sVgeometry
p593
I14
sg19
I14
sVmemory
p594
I32
sg36
I4
sVcosmology
p595
I2
sVtriangulation
p596
I4
sVmathematics
p597
I67
sVcorrelation
p598
I4
sg306
I16
sg167
I4
sVtopology
p599
I6
ssVphotochemistry
p600
g2
(g3
tp601
Rp602
g19
I16
sg45
I6
ssVfluid_mechanics
p603
g2
(g3
tp604
Rp605
Vmechanics
p606
I2
sVkinematics
p607
I2
sg552
I2
sVphysics
p608
I2
ssVhydrology
p609
g2
(g3
tp610
Rp611
Vecology
p612
I8
sVhydrology
p613
I6
sg22
I4
sg19
I48
sg184
I2
sVanalysis
p614
I8
sg20
I2
sg21
I4
sVoceanography
p615
I4
sVclimatology
p616
I2
sg134
I2
ssVforensic_medicine
p617
g2
(g3
tp618
Rp619
Vtoxicology
p620
I4
ssVlinear_algebra
p621
g2
(g3
tp622
Rp623
Vdecomposition
p624
I8
sg309
I4
sg83
I4
ssVeconomics
p625
g2
(g3
tp626
Rp627
g158
I12
sVecology
p628
I4
sVdietetics
p629
I8
sVpolitics
p630
I4
sg65
I1
sVeconometrics
p631
I32
sg397
I12
sVmacroeconomics
p632
I32
sg216
I4
sg253
I8
sg72
I4
sVsocial_science
p633
I2
sg110
I8
sVmathematics
p634
I4
sVcalculus
p635
I4
sg100
I6
sg336
I2
sVfinance
p636
I20
sVsocial_psychology
p637
I4
sg176
I4
sVmicroeconomics
p638
I16
sVstatistics
p639
I12
sVethnography
p640
I4
sg219
I4
sVscience
p641
I16
sVeconomics
p642
I8
sg309
I36
sg95
I3
sVbiotechnology
p643
I4
sg348
I16
sg188
I3
ssVnephrology
p644
g2
(g3
tp645
Rp646
g78
I6
sVpediatrics
p647
I1
sVsurgery
p648
I4
sVneurology
p649
I12
sg275
I8
ssVclassical_mechanics
p650
g2
(g3
tp651
Rp652
g606
I4
sg608
I2
sg607
I2
sg198
I2
ssVbiomedical_science
p653
g2
(g3
tp654
Rp655
Vveterinary_medicine
p656
I4
sVhistology
p657
I2
sVgenetics
p658
I26
sVpsychology
p659
I4
sVbiochemistry
p660
I24
sVmicrobiology
p661
I2
sVpharmacy
p662
I4
sVmedicine
p663
I4
sg330
I4
sVembryology
p664
I4
sVnutrition
p665
I2
sVbiology
p666
I6
sVpharmacology
p667
I6
sVanatomy
p668
I2
sVdentistry
p669
I4
sVneuroscience
p670
I24
sg151
I8
sVphysiology
p671
I6
sVmolecular_biology
p672
I16
sVimmunology
p673
I2
sVvirology
p674
I22
sVbiotechnology
p675
I20
sg348
I2
ssVtoxicology
p676
g2
(g3
tp677
Rp678
Vteratology
p679
I28
sg366
I8
sVtherapeutics
p680
I2
sg367
I1
sg238
I2
sVforensic_medicine
p681
I4
sg453
I4
sg444
I26
sg35
I2
sg36
I4
sg10
I2
sVstatistics
p682
I4
sg152
I10
sVcytology
p683
I2
sVagronomy
p684
I2
sg45
I2
sVpsychopharmacology
p685
I4
sg65
I2
ssVtopography
p686
g2
(g3
tp687
Rp688
Vepigraphy
p689
I10
sg59
I48
sg22
I4
sVanthropology
p690
I4
sVmorphology
p691
I4
sVdynamics
p692
I5
sg167
I2
ssVethnography
p693
g2
(g3
tp694
Rp695
g30
I1
sg251
I2
sg22
I2
sg19
I6
sg84
I12
sVethnography
p696
I20
ssVinformation_science
p697
g2
(g3
tp698
Rp699
Vlinguistics
p700
I2
sg215
I8
sg359
I4
sVeconomics
p701
I6
sVpsychology
p702
I6
sVinformation_science
p703
I2
sVgeology
p704
I4
sVscience
p705
I2
sg160
I4
sg110
I4
sVsociology
p706
I4
sVgeodesy
p707
I4
sVlimnology
p708
I4
sVzoology
p709
I4
sVmathematics
p710
I2
sg313
I4
sVphysics
p711
I2
ssVphysical_anthropology
p712
g2
(g3
tp713
Rp714
g534
I4
sVprimatology
p715
I4
ssVstratigraphy
p716
g2
(g3
tp717
Rp718
g19
I4
sg22
I26
sVanalysis
p719
I10
sVstratigraphy
p720
I4
sVcorrelation
p721
I8
ssVaudiology
p722
g2
(g3
tp723
Rp724
Vanatomy
p725
I4
sVscience
p726
I3
sg78
I4
sg659
I8
sg10
I4
ssVquantum_field_theory
p727
g2
(g3
tp728
Rp729
Vcalculus
p730
I4
sVquantum_chromodynamics
p731
I6
sVquantum_electrodynamics
p732
I6
ssVclinical_anatomy
p733
g2
(g3
tp734
Rp735
Vsurgery
p736
I4
ssVepigraphy
p737
g2
(g3
tp738
Rp739
g19
I2
ssVgenomics
p740
g2
(g3
tp741
Rp742
Vgenomics
p743
I4
sg107
I1
sg50
I2
sg584
I1
sg104
I1
sg308
I1
sg705
I4
sg7
I1
sg534
I4
sg309
I20
sg35
I2
sVepidemiology
p744
I4
sg111
I5
sVproteomics
p745
I4
sg78
I3
sg367
I5
sVpharmacogenetics
p746
I4
sg10
I1
ssVpositive_correlation
p747
g2
(g3
tp748
Rp749
g719
I4
sVcorrelation
p750
I8
ssVneurobiology
p751
g2
(g3
tp752
Rp753
g215
I16
sVgenetics
p754
I4
sg280
I6
sg149
I10
sVelectrochemistry
p755
I2
sVanthropology
p756
I4
sVpsychophysics
p757
I4
sg329
I4
sg78
I2
sVneuroanatomy
p758
I10
sg10
I2
sg19
I8
ssVelectrostatics
p759
g2
(g3
tp760
Rp761
g381
I1
ssVdevelopmental_psychology
p762
g2
(g3
tp763
Rp764
Vdynamics
p765
I2
sg50
I2
sg702
I8
sg532
I4
ssVbioremediation
p766
g2
(g3
tp767
Rp768
Vbioremediation
p769
I8
ssVpragmatics
p770
g2
(g3
tp771
Rp772
g30
I16
sVdeixis
p773
I2
sVsemantics
p774
I10
sg38
I2
ssVkinematics
p775
g2
(g3
tp776
Rp777
g396
I13
sVgeometry
p778
I1
sVastrophysics
p779
I3
sg19
I2
ssVpartial_correlation
p780
g2
(g3
tp781
Rp782
g500
I4
ssVmemory
p783
g2
(g3
tp784
Rp785
g268
I4
sVtaxonomy
p786
I2
sVsyntax
p787
I8
sg273
I8
sVzoology
p788
I4
sg64
I12
sVpathology
p789
I4
sVsurgery
p790
I26
sVgeography
p791
I10
sVstatistics
p792
I4
sVgenetics
p793
I8
sg659
I14
sg276
I4
sVbiochemistry
p794
I8
sVsocial_science
p795
I4
sVmemory
p796
I6
sVmedicine
p797
I4
sg346
I12
sg257
I1
sVarithmetic
p798
I2
sg139
I14
sg82
I8
sg280
I4
sVdynamics
p799
I1
sg149
I12
sVgeometry
p800
I10
sVscience
p801
I24
sg585
I16
sVethology
p802
I4
sVcorrelation
p803
I18
sVmythology
p804
I2
sg711
I2
ssVharmonics
p805
g2
(g3
tp806
Rp807
g19
I2
sg172
I5
ssVmacrobiotics
p808
g2
(g3
tp809
Rp810
Vmedicine
p811
I1
ssVdietetics
p812
g2
(g3
tp813
Rp814
Vnutrition
p815
I1
sVscience
p816
I5
ssVexperimental_psychology
p817
g2
(g3
tp818
Rp819
g702
I4
sVmemory
p820
I536
ssVcardiology
p821
g2
(g3
tp822
Rp823
Vnutrition
p824
I6
sg367
I1
sVcardiology
p825
I30
sg227
I8
sVrheumatology
p826
I4
sVmicrobiology
p827
I8
sg36
I4
sg219
I12
sVmedicine
p828
I46
sg647
I2
sg319
I12
sg10
I12
sg318
I2
ssVneurophysiology
p829
g2
(g3
tp830
Rp831
g366
I2
sg142
I2
sg276
I6
sg19
I2
sVanatomy
p832
I8
sg414
I2
sVmemory
p833
I4
sg78
I2
sg149
I12
sVphysiology
p834
I2
ssVsocial_psychology
p835
g2
(g3
tp836
Rp837
g528
I6
sg702
I12
sVgroup_dynamics
p838
I2
sVsocial_psychology
p839
I4
sVdevelopmental_psychology
p840
I4
sVdynamics
p841
I1
sVpsychopharmacology
p842
I4
ssVnatural_language_processing
p843
g2
(g3
tp844
Rp845
Vgrammar
p846
I8
sVmachine_translation
p847
I4
sVanalysis
p848
I20
sVsyntax
p849
I2
sVmorphology
p850
I2
sVlexical_semantics
p851
I6
sVsemantics
p852
I4
ssVgeophysics
p853
g2
(g3
tp854
Rp855
g396
I2
sVmeteorology
p856
I4
sg179
I4
sVhydrology
p857
I2
sg452
I2
sg494
I2
sg19
I41
sg22
I8
sVsolar_physics
p858
I2
sg496
I4
sVanalysis
p859
I18
sVmagnetism
p860
I2
sVgeochemistry
p861
I2
sVgeophysics
p862
I4
sVseismology
p863
I12
sg164
I8
sg615
I4
sVdynamics
p864
I2
sg122
I2
sg711
I15
sg171
I4
ssVdentistry
p865
g2
(g3
tp866
Rp867
g19
I46
sVorthodontics
p868
I12
sVimmunology
p869
I12
sVendodontics
p870
I20
sVbiochemistry
p871
I4
sg419
I8
sg197
I2
sVdental_surgery
p872
I4
sVanalysis
p873
I2
sg147
I2
sg260
I10
sVhygiene
p874
I2
sVprosthodontics
p875
I8
sVdentistry
p876
I4
sg663
I36
sVpediatrics
p877
I10
sg249
I4
sg96
I2
sVcosmetic_dentistry
p878
I6
sVpathology
p879
I2
sg442
I4
ssVpsychotherapy
p880
g2
(g3
tp881
Rp882
Vtherapeutics
p883
I2
sVcognitive_psychology
p884
I4
sg529
I12
sg543
I14
sVmedicine
p885
I2
sg413
I6
sg77
I12
sVbehaviorism
p886
I4
sVpolitics
p887
I40
sVpsychotherapy
p888
I8
sg864
I2
ssVvertebrate_paleontology
p889
g2
(g3
tp890
Rp891
Vmorphology
p892
I4
sg335
I4
sVpaleoanthropology
p893
I4
sVpaleoecology
p894
I4
ssVsports_medicine
p895
g2
(g3
tp896
Rp897
Vmedicine
p898
I2
sVnutrition
p899
I2
sVsurgery
p900
I4
sVsports_medicine
p901
I2
sVphysiology
p902
I2
ssVscience
p903
g2
(g3
tp904
Rp905
Voncology
p906
I18
sVcraniology
p907
I6
sVnatural_science
p908
I26
sVgynecology
p909
I2
sVtaxonomy
p910
I8
sVdifferential_psychology
p911
I4
sVpure_mathematics
p912
I2
sg757
I4
sVobstetrics
p913
I2
sVmythology
p914
I4
sVmorphology
p915
I8
sVbiometrics
p916
I8
sVgeography
p917
I198
sg527
I66
sg680
I9
sg567
I8
sg233
I4
sg308
I2
sVphysiological_psychology
p918
I4
sVclinical_psychology
p919
I10
sg234
I58
sg235
I20
sVthermodynamics
p920
I10
sVdynamics
p921
I6
sVprimatology
p922
I4
sg629
I4
sVmycology
p923
I8
sVfetology
p924
I12
sg636
I18
sg238
I106
sg704
I238
sVquantum_physics
p925
I8
sVentomology
p926
I4
sVhematology
p927
I4
sVeugenics
p928
I132
sVophthalmology
p929
I4
sVradiobiology
p930
I4
sVimmunology
p931
I46
sVpaleoanthropology
p932
I22
sVabnormal_psychology
p933
I4
sVparticle_physics
p934
I10
sVvirology
p935
I56
sVstructuralism
p936
I4
sg273
I4
sVarithmetic
p937
I24
sVdemography
p938
I8
sVbacteriology
p939
I12
sVmedical_science
p940
I78
sg552
I12
sVbiogeography
p941
I8
sVaeronautics
p942
I14
sg359
I116
sVmagnetohydrodynamics
p943
I2
sVpsycholinguistics
p944
I4
sVtectonics
p945
I4
sVballistics
p946
I42
sVnuclear_medicine
p947
I16
sVneurology
p948
I8
sg116
I16
sVdermatology
p949
I8
sVsurgery
p950
I14
sVcrystallography
p951
I2
sVrheology
p952
I6
sVcriminology
p953
I10
sg518
I4
sVcomparative_anatomy
p954
I4
sg216
I206
sVgenetics
p955
I242
sg253
I350
sVarcheology
p956
I32
sg229
I66
sVradio_astronomy
p957
I8
sVetymology
p958
I54
sg170
I12
sVorganic_chemistry
p959
I12
sg513
I430
sVexobiology
p960
I24
sVelectronics
p961
I54
sVnuclear_physics
p962
I2
sVphysical_chemistry
p963
I4
sVepigraphy
p964
I6
sg215
I1122
sVsocial_anthropology
p965
I6
sg877
I2
sVsurface_chemistry
p966
I4
sg690
I136
sg260
I40
sVmagnetism
p967
I8
sg429
I18
sg538
I16
sVurology
p968
I4
sVcomparative_psychology
p969
I4
sVphysiology
p970
I224
sg87
I14
sVphotochemistry
p971
I10
sg540
I12
sVmolecular_biology
p972
I70
sVhydrology
p973
I34
sVneurobiology
p974
I4
sVforensic_medicine
p975
I6
sg481
I76
sVeconomics
p976
I142
sVlepidopterology
p977
I4
sVnephrology
p978
I8
sVbiomedical_science
p979
I4
sg266
I4
sVhydrodynamics
p980
I10
sVbotany
p981
I112
sVtopography
p982
I12
sVsociobiology
p983
I24
sVinformation_science
p984
I20
sVmineralogy
p985
I4
sVemergency_medicine
p986
I6
sg745
I4
sVphysical_anthropology
p987
I6
sVstratigraphy
p988
I4
sVaudiology
p989
I4
sVcognitive_science
p990
I10
sVholography
p991
I4
sVcybernetics
p992
I48
sVsociolinguistics
p993
I12
sg709
I74
sVmacroeconomics
p994
I2
sg67
I30
sVstatistics
p995
I36
sg168
I70
sVquantum_mechanics
p996
I10
sVkinematics
p997
I12
sVdevelopmental_psychology
p998
I14
sVphonetics
p999
I6
sVbioremediation
p1000
I20
sVphysical_geography
p1001
I18
sVeconomic_geography
p1002
I4
sVorthopedics
p1003
I1
sVsocial_science
p1004
I88
sVplasma_physics
p1005
I4
sVmemory
p1006
I24
sVastrophysics
p1007
I54
sVstatistical_mechanics
p1008
I2
sg664
I54
sVpsychopharmacology
p1009
I10
sVharmonics
p1010
I4
sg100
I60
sVexperimental_psychology
p1011
I2
sVcardiology
p1012
I4
sVpomology
p1013
I6
sg577
I4
sVsocial_psychology
p1014
I1
sVfluid_mechanics
p1015
I10
sVdental_surgery
p1016
I2
sVenzymology
p1017
I8
sVgeophysics
p1018
I40
sVpaleography
p1019
I4
sg281
I22
sVcognitive_neuroscience
p1020
I8
sVcognitive_psychology
p1021
I12
sVpsychotherapy
p1022
I1
sVbiomedicine
p1023
I6
sVsemantics
p1024
I2
sVethology
p1025
I4
sVsports_medicine
p1026
I4
sVcytology
p1027
I8
sVscience
p1028
I124
sVmeteorology
p1029
I116
sg362
I6
sVpaleoecology
p1030
I2
sVelectrochemistry
p1031
I8
sVkinesiology
p1032
I8
sVapplied_mathematics
p1033
I10
sVacoustics
p1034
I4
sg181
I24
sVnumerical_analysis
p1035
I4
sVmechanics
p1036
I26
sg289
I12
sVbehaviorism
p1037
I26
sVornithology
p1038
I46
sg494
I8
sg563
I4
sVgenetic_engineering
p1039
I16
sVsolar_physics
p1040
I5
sVmicroelectronics
p1041
I24
sVpaleoclimatology
p1042
I6
sVvolcanology
p1043
I6
sVreflexology
p1044
I4
sVelectromagnetism
p1045
I4
sVpharmacokinetics
p1046
I4
sVpolitics
p1047
I32
sVagronomy
p1048
I8
sg544
I62
sg879
I52
sVsilviculture
p1049
I2
sVeconomic_geology
p1050
I4
sVmetrology
p1051
I4
sVspeleology
p1052
I4
sVbiochemistry
p1053
I204
sVconchology
p1054
I2
sVpaleontology
p1055
I22
sVlife_science
p1056
I26
sVeconometrics
p1057
I2
sVforestry
p1058
I8
sg707
I12
sVlimnology
p1059
I2
sg222
I626
sVearth_science
p1060
I60
sg635
I4
sVphytochemistry
p1061
I8
sVhome_economics
p1062
I10
sg193
I10
sVnatural_history
p1063
I24
sVmolecular_genetics
p1064
I8
sVosteology
p1065
I2
sg868
I48
sVbiophysics
p1066
I20
sg304
I176
sVgrammar
p1067
I32
sVseismology
p1068
I18
sVveterinary_medicine
p1069
I1
sVneuroscience
p1070
I86
sVastronomy
p1071
I492
sVcryogenics
p1072
I6
sVhistorical_linguistics
p1073
I1
sVcryobiology
p1074
I12
sVtrigonometry
p1075
I104
sVsyntax
p1076
I8
sVcosmetic_dentistry
p1077
I26
sVprosthetics
p1078
I1
sg309
I38
sVphrenology
p1079
I4
sVpaleobiology
p1080
I16
sVcivics
p1081
I1
sVbrain_science
p1082
I18
sVcorrelation
p1083
I2
sVpsychiatry
p1084
I34
sVbiotechnology
p1085
I168
sg313
I1242
sg711
I608
ssVvolcanology
p1086
g2
(g3
tp1087
Rp1088
g19
I4
sg366
I4
sg861
I4
sg20
I6
sg22
I8
ssVelectrochemistry
p1089
g2
(g3
tp1090
Rp1091
g45
I8
sg276
I2
ssVstructuralism
p1092
g2
(g3
tp1093
Rp1094
g19
I4
sg142
I20
sVarithmetic
p1095
I4
ssVclimatology
p1096
g2
(g3
tp1097
Rp1098
g857
I2
sg22
I4
sg19
I14
sg184
I4
sg36
I4
sVpaleoclimatology
p1099
I8
sVgeophysics
p1100
I8
sVmorphology
p1101
I4
sVdynamics
p1102
I4
sg88
I8
sg167
I2
ssVhydrography
p1103
g2
(g3
tp1104
Rp1105
Vastronomy
p1106
I4
ssVanalytic_geometry
p1107
g2
(g3
tp1108
Rp1109
g635
I4
ssVornithology
p1110
g2
(g3
tp1111
Rp1112
Vscience
p1113
I4
sVsystematics
p1114
I4
ssVpetrology
p1115
g2
(g3
tp1116
Rp1117
g452
I4
sg19
I8
sVgeology
p1118
I20
sVvolcanology
p1119
I4
sg861
I4
sg20
I2
ssVwave_mechanics
p1120
g2
(g3
tp1121
Rp1122
Vacoustics
p1123
I4
ssVdental_surgery
p1124
g2
(g3
tp1125
Rp1126
g900
I8
sVdental_surgery
p1127
I4
ssVpharmacokinetics
p1128
g2
(g3
tp1129
Rp1130
g19
I1
sg104
I3
ssVpathology
p1131
g2
(g3
tp1132
Rp1133
Voncology
p1134
I4
sg8
I2
sVzoology
p1135
I8
sVhygiene
p1136
I2
sVneurology
p1137
I6
sg116
I4
sVdermatology
p1138
I8
sVpolitics
p1139
I6
sVpathology
p1140
I2
sVsurgery
p1141
I2
sVtraumatology
p1142
I8
sVstatistics
p1143
I2
sVgenetics
p1144
I4
sg659
I4
sVphonetics
p1145
I1
sg571
I2
sVtropical_medicine
p1146
I2
sVmedicine
p1147
I14
sg683
I12
sVcalculus
p1148
I12
sg138
I12
sVbiology
p1149
I4
sVfinance
p1150
I2
sg1065
I2
sVentomology
p1151
I2
sg145
I2
sg927
I4
sg832
I6
sVradiology
p1152
I2
sVdentistry
p1153
I2
sVneuroanatomy
p1154
I4
sVphysiology
p1155
I6
sVmolecular_biology
p1156
I4
sg241
I2
sg308
I1
sVscience
p1157
I68
sg9
I1
sVanalysis
p1158
I4
sVbacteriology
p1159
I8
sVtoxicology
p1160
I36
sg187
I12
ssVlepidopterology
p1161
g2
(g3
tp1162
Rp1163
g19
I2
ssVmetrology
p1164
g2
(g3
tp1165
Rp1166
Vholography
p1167
I4
sVmetrology
p1168
I10
sVscience
p1169
I4
sVsociology
p1170
I8
sg643
I4
sg134
I2
sg434
I2
ssVpaleobiology
p1171
g2
(g3
tp1172
Rp1173
g84
I4
sg892
I4
sg1114
I4
sVhistology
p1174
I4
ssVconchology
p1175
g2
(g3
tp1176
Rp1177
g19
I2
ssVperinatology
p1178
g2
(g3
tp1179
Rp1180
Vgynecology
p1181
I2
ssVsilviculture
p1182
g2
(g3
tp1183
Rp1184
g72
I6
sg19
I2
ssVteratology
p1185
g2
(g3
tp1186
Rp1187
Vanatomy
p1188
I2
ssVgastroenterology
p1189
g2
(g3
tp1190
Rp1191
g78
I4
sVurology
p1192
I2
ssValgebra
p1193
g2
(g3
tp1194
Rp1195
g635
I14
sg96
I4
sVgrammar
p1196
I14
sg179
I4
sValgebra
p1197
I2
sVlinear_algebra
p1198
I12
sg19
I26
sVanalysis
p1199
I4
sVsyntax
p1200
I4
sVgeometry
p1201
I12
sg682
I1
sVdecomposition
p1202
I4
sVquadratics
p1203
I2
sg346
I313
sg65
I1
sVgroup_theory
p1204
I20
sg340
I2
sVtrigonometry
p1205
I4
sg937
I10
sVtopology
p1206
I2
ssVgroup_dynamics
p1207
g2
(g3
tp1208
Rp1209
Vsocial_science
p1210
I6
ssVmolecular_genetics
p1211
g2
(g3
tp1212
Rp1213
Vgenomics
p1214
I4
sVfunctional_genomics
p1215
I4
sVimmunology
p1216
I4
ssVosteology
p1217
g2
(g3
tp1218
Rp1219
g725
I4
sg19
I2
sg210
I2
sg36
I4
ssVcomparative_psychology
p1220
g2
(g3
tp1221
Rp1222
Vdevelopmental_psychology
p1223
I4
sVprimatology
p1224
I4
ssVtriangulation
p1225
g2
(g3
tp1226
Rp1227
Vtriangulation
p1228
I68
sg778
I4
sVethnography
p1229
I4
sg94
I4
ssVmicrobiology
p1230
g2
(g3
tp1231
Rp1232
Vbotany
p1233
I8
sg359
I4
sg910
I4
sVmycology
p1234
I16
sg208
I2
sg210
I2
sg146
I2
sg955
I16
sVserology
p1235
I4
sVbiochemistry
p1236
I8
sVbioremediation
p1237
I8
sVmicrobiology
p1238
I8
sVprotozoology
p1239
I4
sVphycology
p1240
I4
sg513
I8
sVnutrition
p1241
I16
sg215
I78
sVpharmacology
p1242
I10
sVveterinary_medicine
p1243
I4
sg206
I12
sVtoxicology
p1244
I4
sg10
I8
sVmolecular_biology
p1245
I12
sg241
I8
sg242
I20
sVanalysis
p1246
I8
sVscience
p1247
I190
sg939
I20
sg1085
I4
sg340
I4
ssVhydrodynamics
p1248
g2
(g3
tp1249
Rp1250
g172
I2
sg134
I3
sg943
I2
ssVveterinary_medicine
p1251
g2
(g3
tp1252
Rp1253
g101
I8
sVemergency_medicine
p1254
I4
sVpharmacy
p1255
I4
sg832
I4
sVdentistry
p1256
I4
sVdermatology
p1257
I12
sg900
I4
sVpathology
p1258
I8
sVinternal_medicine
p1259
I4
ssVsociolinguistics
p1260
g2
(g3
tp1261
Rp1262
g30
I41
sg1145
I2
sg36
I1
sg406
I2
sVphonology
p1263
I2
sg208
I2
sVpragmatics
p1264
I2
sVsemantics
p1265
I2
ssVcryogenics
p1266
g2
(g3
tp1267
Rp1268
g860
I2
sVelectronics
p1269
I1
ssVhistorical_linguistics
p1270
g2
(g3
tp1271
Rp1272
g848
I4
ssVherpetology
p1273
g2
(g3
tp1274
Rp1275
Vbiogeography
p1276
I2
sg366
I2
sg8
I4
sg7
I8
sg9
I4
sg802
I4
sg6
I4
sg10
I2
ssVcytogenetics
p1277
g2
(g3
tp1278
Rp1279
g40
I1
sg367
I2
sg146
I1
sg19
I2
sg9
I1
sg78
I2
sg210
I1
ssVacoustics
p1280
g2
(g3
tp1281
Rp1282
g19
I11
sg36
I1
ssVprosthetics
p1283
g2
(g3
tp1284
Rp1285
g19
I1
sg970
I4
ssVanalysis
p1286
g2
(g3
tp1287
Rp1288
Voncology
p1289
I8
sg909
I4
sVtaxonomy
p1290
I6
sg1076
I4
sVmorphology
p1291
I12
sVprobability_theory
p1292
I8
sVbiometrics
p1293
I1
sVgeography
p1294
I4
sVlinguistics
p1295
I4
sVtherapeutics
p1296
I8
sVserology
p1297
I2
sg234
I4
sg454
I2
sVthermodynamics
p1298
I1
sVstatics
p1299
I4
sVfinance
p1300
I12
sVpharmacology
p1301
I4
sVgeology
p1302
I2
sVpaleopathology
p1303
I4
sg927
I2
sVmicroeconomics
p1304
I1
sVgrammar
p1305
I8
sVimmunology
p1306
I10
sVvirology
p1307
I4
sVquantum_field_theory
p1308
I4
sg34
I4
sVbacteriology
p1309
I4
sVoptics
p1310
I3
sVecology
p1311
I8
sVballistics
p1312
I10
sg116
I4
sg319
I26
sVcrystallography
p1313
I18
sg631
I8
sVcriminology
p1314
I4
sg1170
I6
sVgenetics
p1315
I6
sg253
I14
sg827
I4
sVetymology
p1316
I4
sg861
I4
sVdecomposition
p1317
I8
sg513
I8
sg257
I3
sg666
I20
sVpediatrics
p1318
I8
sg176
I4
sVepidemiology
p1319
I4
sg967
I4
sVradiology
p1320
I4
sVfourier_analysis
p1321
I14
sVethnography
p1322
I8
sg581
I6
sVtopology
p1323
I12
sVanatomy
p1324
I2
sg616
I4
sVhydrology
p1325
I8
sg481
I36
sg976
I16
sVtrigonometry
p1326
I4
sVtoxicology
p1327
I10
sVgroup_theory
p1328
I4
sg452
I4
sg745
I4
sg988
I10
sVhygiene
p1329
I4
sg38
I1
sVmacroeconomics
p1330
I1
sVgenomics
p1331
I10
sg995
I16
sg584
I2
sVphonetics
p1332
I12
sVsocial_science
p1333
I4
sg1006
I56
sVkinematics
p1334
I8
sg100
I4
sg570
I2
sVnatural_language_processing
p1335
I8
sVmolecular_biology
p1336
I12
sg1153
I2
sVsemantics
p1337
I4
sg705
I6
sg9
I3
sg755
I4
sVmythology
p1338
I2
sVnumerical_analysis
p1339
I10
sg396
I6
sVpetrology
p1340
I12
sVendocrinology
p1341
I4
sVpharmacokinetics
p1342
I4
sg1047
I20
sVpathology
p1343
I4
sVdynamics
p1344
I3
sVbiochemistry
p1345
I10
sVforestry
p1346
I8
sg298
I150
sVcalculus_of_variations
p1347
I2
sg937
I4
sVcalculus
p1348
I8
sg193
I16
sVsociometry
p1349
I8
sg1065
I4
sVtriangulation
p1350
I8
sVneuroscience
p1351
I2
sVhistorical_linguistics
p1352
I4
sVherpetology
p1353
I4
sVacoustics
p1354
I1
sVanalysis
p1355
I16
sVcosmology
p1356
I6
sg721
I32
sVpsychiatry
p1357
I16
sVbiotechnology
p1358
I6
sVset_theory
p1359
I4
sg313
I10
sg340
I2
ssVphrenology
p1360
g2
(g3
tp1361
Rp1362
Vnutrition
p1363
I8
sVchemistry
p1364
I4
sVanalysis
p1365
I4
sg19
I2
ssVreflexology
p1366
g2
(g3
tp1367
Rp1368
Vreflexology
p1369
I8
sVnutrition
p1370
I4
ssVcivics
p1371
g2
(g3
tp1372
Rp1373
g887
I4
sg701
I4
ssVbrain_science
p1374
g2
(g3
tp1375
Rp1376
Vbiology
p1377
I2
sVneuroanatomy
p1378
I2
sVpsychology
p1379
I4
sVneurobiology
p1380
I2
sVneurophysiology
p1381
I2
sVbiophysics
p1382
I2
sVcognitive_science
p1383
I2
sVneurology
p1384
I2
ssVcorrelation
p1385
g2
(g3
tp1386
Rp1387
Voncology
p1388
I4
sg159
I12
sVmycology
p1389
I6
sVmorphology
p1390
I4
sg790
I10
sVdynamics
p1391
I2
sg639
I30
sg1144
I8
sVsocial_science
p1392
I4
sVmemory
p1393
I24
sVnegative_correlation
p1394
I6
sVtopology
p1395
I8
sg899
I4
sVgeology
p1396
I6
sVneurophysiology
p1397
I8
sg1319
I4
sVgeriatrics
p1398
I4
sg149
I4
sVelectromagnetism
p1399
I4
sg92
I2
sVeconomics
p1400
I4
sVanalysis
p1401
I8
sVcorrelation
p1402
I694
sVmedical_science
p1403
I4
sg1364
I4
sVphysics
p1404
I8
ssVbehaviorism
p1405
g2
(g3
tp1406
Rp1407
Vbehaviorism
p1408
I10
sg1169
I4
sVcognitive_psychology
p1409
I4
sVpsychology
p1410
I28
sVbrain_science
p1411
I4
ssVset_theory
p1412
g2
(g3
tp1413
Rp1414
g222
I4
sValgebra
p1415
I4
sVarithmetic
p1416
I4
sVtopology
p1417
I4
ssVchemistry
p1418
g2
(g3
tp1419
Rp1420
g606
I2
sg158
I12
sg628
I4
sg160
I8
sg207
I12
sg669
I2
sVbiology
p1421
I4
sVlife_science
p1422
I8
sVgenetics
p1423
I4
sg719
I12
sVsurface_chemistry
p1424
I8
sVpolitics
p1425
I2
sVdynamics
p1426
I2
sVcrystallography
p1427
I2
sVinorganic_chemistry
p1428
I24
sVchemistry
p1429
I8
sVtherapeutics
p1430
I2
sVoceanography
p1431
I14
sVpsychology
p1432
I2
sVquantum_mechanics
p1433
I2
sg1053
I16
sg480
I20
sg229
I20
sVlimnology
p1434
I2
sg147
I4
sVmetallurgy
p1435
I12
sg920
I4
sVthermochemistry
p1436
I2
sg170
I2
sVsocial_science
p1437
I6
sVtaxonomy
p1438
I4
sVmedicine
p1439
I32
sVmathematics
p1440
I14
sg257
I16
sVnuclear_physics
p1441
I2
sVphysical_chemistry
p1442
I12
sVcalculus
p1443
I42
sg1241
I16
sVstatics
p1444
I6
sVimmunology
p1445
I6
sg238
I8
sVgeology
p1446
I2
sVorganic_chemistry
p1447
I40
sVquantum_physics
p1448
I2
sVoptics
p1449
I4
sg1066
I4
sg176
I2
sVepidemiology
p1450
I28
sg967
I8
sg1170
I2
sVparticle_physics
p1451
I2
sg209
I2
sg306
I6
sVbiotechnology
p1452
I16
sg307
I8
sg970
I42
sg1045
I8
sVphotochemistry
p1453
I4
sg579
I32
sVmolecular_biology
p1454
I4
sVhydrology
p1455
I12
sVneurobiology
p1456
I8
sVstatistical_mechanics
p1457
I2
sg481
I16
sg705
I8
sg976
I4
sg755
I8
sVcorrelation
p1458
I2
sVmedical_science
p1459
I4
sVgroup_theory
p1460
I4
sg711
I14
sVtrigonometry
p1461
I12
sVstatistics
p1462
I14
ssVinorganic_chemistry
p1463
g2
(g3
tp1464
Rp1465
Vthermodynamics
p1466
I4
sVchemistry
p1467
I36
ssVoncology
p1468
g2
(g3
tp1469
Rp1470
Vnutrition
p1471
I4
sVoncology
p1472
I4
sg1152
I2
sg647
I2
sg146
I4
sg1181
I6
sg270
I4
sg215
I4
sg32
I4
sg827
I8
sg260
I4
sg150
I5
sg414
I2
sVobstetrics
p1473
I4
sg19
I4
sg78
I16
sg318
I6
sg879
I4
sg388
I4
ssVnatural_science
p1474
g2
(g3
tp1475
Rp1476
g981
I88
sg976
I18
sVpsycholinguistics
p1477
I4
sVtaxonomy
p1478
I6
sVpaleontology
p1479
I12
sVbiomedicine
p1480
I18
sVlife_science
p1481
I4
sVcognitive_science
p1482
I4
sVecology
p1483
I24
sg306
I8
sg709
I52
sVpolitics
p1484
I6
sg319
I4
sVcrystallography
p1485
I4
sg917
I14
sg1295
I6
sg995
I2
sg955
I24
sVpsychology
p1486
I18
sg1456
I4
sg1346
I4
sg1053
I8
sVarcheology
p1487
I6
sVphonetics
p1488
I4
sg160
I28
sVmicrobiology
p1489
I10
sg1255
I6
sg235
I4
sg920
I12
sg170
I4
sVsocial_science
p1490
I20
sVpneumatics
p1491
I6
sVorganic_chemistry
p1492
I6
sg513
I6
sg222
I100
sg386
I12
sVnuclear_physics
p1493
I2
sVearth_science
p1494
I14
sg1363
I6
sg215
I162
sVornithology
p1495
I4
sVexperimental_psychology
p1496
I4
sVpharmacology
p1497
I4
sg704
I78
sVnatural_history
p1498
I6
sVquantum_physics
p1499
I2
sVentomology
p1500
I24
sg690
I4
sVastrophysics
p1501
I12
sVsociology
p1502
I6
sg862
I6
sVcognitive_psychology
p1503
I6
sVsociobiology
p1504
I4
sg312
I6
sg241
I4
sg1071
I82
sVphysiology
p1505
I14
sVanatomy
p1506
I12
sVethnology
p1507
I4
sVmolecular_biology
p1508
I6
sg973
I10
sVquantum_mechanics
p1509
I2
sVoceanography
p1510
I8
sVgeometry
p1511
I12
sg705
I56
sg1029
I10
sVanalysis
p1512
I6
sVcosmology
p1513
I12
sVreflexology
p1514
I4
sVmedical_science
p1515
I12
sg313
I156
sg711
I70
ssVgynecology
p1516
g2
(g3
tp1517
Rp1518
g906
I6
sg141
I8
sVgynecology
p1519
I46
sVendocrinology
p1520
I8
sVperinatology
p1521
I2
sVmedicine
p1522
I4
sVobstetrics
p1523
I4
sVdermatology
p1524
I12
sVurology
p1525
I2
sVsurgery
p1526
I4
sVneonatology
p1527
I12
ssVtaxonomy
p1528
g2
(g3
tp1529
Rp1530
Vcalculus
p1531
I4
sg981
I14
sg366
I22
sg8
I2
sVcorrelation
p1532
I4
sVtaxonomy
p1533
I8
sVbiogeography
p1534
I16
sg833
I2
sg9
I4
sg35
I2
sg848
I4
sg832
I12
sg244
I2
sg518
I2
sg217
I4
sg6
I2
sVcladistics
p1535
I4
sg7
I8
ssVmycology
p1536
g2
(g3
tp1537
Rp1538
g40
I4
sVecology
p1539
I6
sg335
I4
sg35
I16
sg19
I6
ssVpsychophysics
p1540
g2
(g3
tp1541
Rp1542
g19
I3
sg366
I1
sg142
I2
sg276
I3
ssVprosthodontics
p1543
g2
(g3
tp1544
Rp1545
g1153
I8
ssVobstetrics
p1546
g2
(g3
tp1547
Rp1548
g107
I1
sVradiology
p1549
I4
sg647
I1
sVgynecology
p1550
I4
sg145
I1
sg110
I10
sg423
I20
sVdentistry
p1551
I4
sg949
I8
sg318
I1
sVsurgery
p1552
I26
sVtraumatology
p1553
I4
ssVprobability_theory
p1554
g2
(g3
tp1555
Rp1556
g346
I6
sg82
I4
ssVlinguistics
p1557
g2
(g3
tp1558
Rp1559
g1477
I20
sg787
I100
sVcognitive_science
p1560
I12
sg915
I56
sg879
I4
sg167
I1
sVlinguistics
p1561
I8
sg528
I12
sVgenetics
p1562
I8
sg659
I8
sg1488
I56
sVhistorical_linguistics
p1563
I8
sVetymology
p1564
I4
sg346
I16
sVpaleontology
p1565
I4
sg690
I12
sVnatural_language_processing
p1566
I4
sVethnography
p1567
I4
sVsociolinguistics
p1568
I56
sVlexical_semantics
p1569
I4
sVpragmatics
p1570
I26
sVsemantics
p1571
I64
sVgrammar
p1572
I8
sVscience
p1573
I23
sg309
I16
sVphonology
p1574
I72
sVcomputational_linguistics
p1575
I16
sVneurolinguistics
p1576
I3
ssVneuroanatomy
p1577
g2
(g3
tp1578
Rp1579
g366
I4
sg142
I2
sg276
I10
sg19
I6
sg149
I10
sg210
I4
ssVserology
p1580
g2
(g3
tp1581
Rp1582
g366
I2
sVimmunology
p1583
I2
sg19
I4
sg35
I4
sVanalysis
p1584
I2
sg78
I2
ssVpharmacy
p1585
g2
(g3
tp1586
Rp1587
Vnutrition
p1588
I4
sVoncology
p1589
I4
sVpharmacology
p1590
I4
sVbiochemistry
p1591
I12
sVscience
p1592
I58
sg1153
I2
sg827
I8
sVpharmacy
p1593
I50
sg949
I8
sg523
I4
sg1393
I12
sVmedicine
p1594
I12
sg551
I4
sg388
I4
sg45
I4
sg134
I2
ssVthermodynamics
p1595
g2
(g3
tp1596
Rp1597
Vmechanics
p1598
I3
sg366
I2
sg45
I7
sVquantum_mechanics
p1599
I2
sg453
I4
sg19
I9
sVeconomics
p1600
I8
sg309
I1
sg861
I4
sVstatistical_mechanics
p1601
I2
sVnuclear_physics
p1602
I2
sVphysics
p1603
I20
ssVprotozoology
p1604
g2
(g3
tp1605
Rp1606
g366
I2
sg612
I4
sg35
I2
sg902
I4
ssVphysical_geography
p1607
g2
(g3
tp1608
Rp1609
Vbiogeography
p1610
I4
sVbotany
p1611
I26
sg612
I4
sVhydrology
p1612
I12
sVgeology
p1613
I4
sg705
I4
sg445
I4
sVgeochemistry
p1614
I4
sg181
I8
ssVfractal_geometry
p1615
g2
(g3
tp1616
Rp1617
Vgeometry
p1618
I8
ssVgeodesy
p1619
g2
(g3
tp1620
Rp1621
g584
I4
sg22
I8
sg19
I12
sg20
I6
sg21
I8
sg172
I2
sg65
I1
sg134
I12
ssVundercut
p1622
g2
(g3
tp1623
Rp1624
Vundercut
p1625
I2
ssVfinance
p1626
g2
(g3
tp1627
Rp1628
Vmatrix_algebra
p1629
I4
sVgeopolitics
p1630
I4
sg64
I12
sg65
I1
sVsurgery
p1631
I4
sg1330
I6
sg120
I4
sg639
I2
sVmetrology
p1632
I2
sVeconometrics
p1633
I4
sg1058
I4
sVsocial_science
p1634
I3
sVmedicine
p1635
I16
sg597
I4
sg196
I4
sVcalculus
p1636
I4
sg899
I4
sVfinance
p1637
I34
sg193
I4
sg1304
I3
sVgeometry
p1638
I12
sVscience
p1639
I4
sVeconomics
p1640
I12
sVanalysis
p1641
I8
sVcorrelation
p1642
I4
sg134
I2
ssVpaleontology
p1643
g2
(g3
tp1644
Rp1645
Vichthyology
p1646
I4
sVlinguistics
p1647
I4
sg366
I2
sVmammalogy
p1648
I4
sVornithology
p1649
I4
sVmalacology
p1650
I4
sg19
I56
sVpaleontology
p1651
I10
sVpaleobotany
p1652
I4
sVpaleoecology
p1653
I4
sVanthropology
p1654
I4
sVecology
p1655
I4
sVmicropaleontology
p1656
I8
sg335
I4
sg892
I4
sg22
I16
sVpaleoanthropology
p1657
I4
sg40
I2
sVpaleozoology
p1658
I4
ssVmalacology
p1659
g2
(g3
tp1660
Rp1661
g6
I2
ssVentomology
p1662
g2
(g3
tp1663
Rp1664
g518
I8
sg146
I1
sg366
I14
sg8
I10
sg367
I1
sg453
I2
sVtaxonomy
p1665
I8
sg9
I1
sg6
I10
sg564
I8
sg19
I12
sg208
I2
sg210
I2
sg10
I2
sg392
I8
ssVgeriatrics
p1666
g2
(g3
tp1667
Rp1668
g227
I8
sVendocrinology
p1669
I4
sg413
I4
sg1523
I16
sg78
I8
sg319
I22
sVpathology
p1670
I8
sVinternal_medicine
p1671
I4
ssVgrammar
p1672
g2
(g3
tp1673
Rp1674
g396
I10
sVtrigonometry
p1675
I8
sVbiology
p1676
I10
sVgrammar
p1677
I16
sg529
I4
sValgebra
p1678
I4
sg217
I16
sg1488
I8
sVcorrelation
p1679
I6
sg36
I2
sg787
I20
sg1574
I8
sg110
I8
sg30
I5
sVgenerative_grammar
p1680
I8
sg77
I12
sg915
I20
sVpolitics
p1681
I4
sVdeixis
p1682
I2
sg1570
I2
sg1571
I7
ssVapplied_psychology
p1683
g2
(g3
tp1684
Rp1685
Vdevelopmental_psychology
p1686
I2
sVclinical_psychology
p1687
I4
sg702
I10
ssVimmunology
p1688
g2
(g3
tp1689
Rp1690
Vbiology
p1691
I20
sVmolecular_biology
p1692
I10
sVimmunology
p1693
I42
sg233
I2
sg19
I42
sg35
I10
sVanalysis
p1694
I10
sVimmunopathology
p1695
I2
sVhistology
p1696
I8
sVmedicine
p1697
I20
sg367
I3
sg210
I2
sVimmunochemistry
p1698
I2
ssVhygiene
p1699
g2
(g3
tp1700
Rp1701
Vnutrition
p1702
I4
sg19
I4
sg309
I62
sVhygiene
p1703
I96
sg1153
I2
sVmedicine
p1704
I4
sg319
I8
ssVearth_science
p1705
g2
(g3
tp1706
Rp1707
Vecology
p1708
I4
sVmineralogy
p1709
I2
sVtectonics
p1710
I1
sVgeography
p1711
I8
sVoceanography
p1712
I10
sVpaleontology
p1713
I4
sVforestry
p1714
I10
sVgeochemistry
p1715
I4
sVphysical_geography
p1716
I10
sg330
I2
sVbiology
p1717
I6
sVgeology
p1718
I38
sVanthropology
p1719
I2
sVmagnetism
p1720
I4
sVgeophysics
p1721
I4
sVseismology
p1722
I12
sVastronomy
p1723
I2
sVpetroleum_geology
p1724
I4
sVchemistry
p1725
I6
sVhydrology
p1726
I12
sg801
I2
sVmeteorology
p1727
I10
sg848
I4
sg108
I4
sVclimatology
p1728
I4
sg188
I3
ssVdemography
p1729
g2
(g3
tp1730
Rp1731
g366
I2
sVstatistics
p1732
I1
sVscience
p1733
I8
sVeconomics
p1734
I3
sg341
I6
sg84
I4
sg251
I36
sVsocial_science
p1735
I6
sVdemography
p1736
I12
sg663
I12
sg172
I1
sg1391
I2
sVeconometrics
p1737
I8
sg167
I2
ssVbacteriology
p1738
g2
(g3
tp1739
Rp1740
g367
I2
sg1665
I2
sg35
I18
sVanalysis
p1741
I18
sg260
I16
sg19
I6
sg885
I2
sVpathology
p1742
I16
sVchemistry
p1743
I16
sg10
I2
ssVmedical_science
p1744
g2
(g3
tp1745
Rp1746
g227
I4
sVbacteriology
p1747
I6
sg281
I2
sg649
I6
sVobstetrics
p1748
I4
sVneuropsychiatry
p1749
I4
sg295
I32
sVsurgery
p1750
I4
sg580
I8
sg659
I4
sg1053
I26
sVmicrobiology
p1751
I12
sg662
I2
sg1003
I8
sVsocial_science
p1752
I4
sg513
I26
sVmathematics
p1753
I4
sg1363
I24
sVbiology
p1754
I14
sVpharmacology
p1755
I22
sg1012
I2
sVorganic_chemistry
p1756
I4
sVhematology
p1757
I4
sVbiophysics
p1758
I4
sg1506
I50
sVepidemiology
p1759
I24
sVveterinary_medicine
p1760
I4
sVneuroscience
p1761
I6
sg970
I64
sVmolecular_biology
p1762
I8
sVimmunology
p1763
I4
sg217
I44
sVbiomedical_science
p1764
I18
sVpsychiatry
p1765
I16
sVtoxicology
p1766
I4
sVchemistry
p1767
I12
sVinternal_medicine
p1768
I6
ssVecology
p1769
g2
(g3
tp1770
Rp1771
g1276
I16
sg40
I4
sVtopography
p1772
I4
sg1665
I2
sg564
I2
sVecology
p1773
I2
sg1640
I24
sg6
I14
sg1425
I2
sg1426
I2
sg595
I4
sg210
I2
sg167
I4
sg793
I8
sg659
I8
sVmicrobiology
p1774
I4
sg1346
I6
sVdecomposition
p1775
I2
sVmathematics
p1776
I4
sVbioclimatology
p1777
I4
sg215
I4
sVfinance
p1778
I4
sg71
I12
sg708
I2
sg7
I4
sg84
I4
sg369
I2
sVsociobiology
p1779
I4
sg1325
I12
sg970
I2
sg392
I4
sVcytology
p1780
I12
sg584
I2
sg705
I32
sg445
I8
sg94
I4
sg802
I4
sVdemography
p1781
I6
sg313
I4
sg711
I4
ssVrheumatology
p1782
g2
(g3
tp1783
Rp1784
g78
I4
ssVballistics
p1785
g2
(g3
tp1786
Rp1787
Vanalysis
p1788
I4
ssVneurology
p1789
g2
(g3
tp1790
Rp1791
g107
I2
sVpediatrics
p1792
I1
sg659
I8
sVneurobiology
p1793
I4
sVcardiology
p1794
I4
sg227
I8
sg577
I8
sg366
I2
sVaudiology
p1795
I8
sg513
I22
sVophthalmology
p1796
I8
sg649
I12
sVpsychiatry
p1797
I24
sg511
I8
sg19
I4
sVneuropsychiatry
p1798
I4
sg149
I10
sVsurgery
p1799
I4
ssVhistology
p1800
g2
(g3
tp1801
Rp1802
g1691
I8
sVmolecular_biology
p1803
I10
sVcytology
p1804
I4
sg19
I20
sVanalysis
p1805
I4
sg1188
I8
sg565
I12
sg78
I4
sg1583
I8
sg319
I8
sg1155
I4
ssVdermatology
p1806
g2
(g3
tp1807
Rp1808
Vbiology
p1809
I4
sg102
I4
sVimmunology
p1810
I4
sg1497
I8
sVmycology
p1811
I4
sg1524
I24
sVsurgery
p1812
I20
sVpathology
p1813
I6
ssVeconometrics
p1814
g2
(g3
tp1815
Rp1816
g85
I3
sg434
I4
sg19
I2
sg1734
I4
sVanalysis
p1817
I13
sg172
I1
sVcriminology
p1818
I4
ssVcriminology
p1819
g2
(g3
tp1820
Rp1821
g85
I1
sg659
I4
sg19
I6
sg701
I4
sg36
I4
sg251
I4
sg887
I4
sVpathology
p1822
I4
sVcriminology
p1823
I4
ssVcomparative_anatomy
p1824
g2
(g3
tp1825
Rp1826
Vembryology
p1827
I12
sVendocrinology
p1828
I12
sVphysical_anthropology
p1829
I12
sVneuroanatomy
p1830
I12
sg1174
I12
ssVsociology
p1831
g2
(g3
tp1832
Rp1833
g40
I2
sg6
I2
sg1047
I16
sVcriminology
p1834
I58
sg30
I3
sg995
I2
sg1432
I8
sg78
I6
sg346
I1
sg917
I4
sg336
I26
sVsocial_anthropology
p1835
I4
sg1300
I12
sVsocial_psychology
p1836
I16
sVanthropology
p1837
I4
sVsociology
p1838
I12
sg1322
I2
sg86
I12
sg705
I4
sg976
I4
sg543
I8
sg95
I36
sVpsychiatry
p1839
I2
sg187
I2
sg340
I2
ssVgenetics
p1840
g2
(g3
tp1841
Rp1842
g981
I5
sg359
I4
sVnutrition
p1843
I36
sg786
I8
sVgenetic_engineering
p1844
I32
sVsocial_anthropology
p1845
I4
sg6
I7
sVpolitics
p1846
I4
sVsurgery
p1847
I4
sg1258
I4
sg67
I5
sg1170
I8
sVgenetics
p1848
I140
sg1591
I4
sg570
I1
sg35
I8
sg745
I4
sg513
I12
sg1698
I2
sg329
I4
sg139
I4
sg7
I1
sg647
I1
sVbiomedicine
p1849
I3
sVmolecular_genetics
p1850
I4
sVeugenics
p1851
I4
sg176
I2
sg260
I4
sg50
I2
sg413
I1
sVethnography
p1852
I8
sg111
I8
sg149
I6
sVphysiology
p1853
I6
sVmolecular_biology
p1854
I14
sg1583
I3
sVcytogenetics
p1855
I2
sg801
I12
sg309
I12
sg802
I1
sVpharmacogenetics
p1856
I4
sVdemography
p1857
I4
sg109
I2
sg244
I2
sg587
I1
sg45
I16
sg134
I2
ssVpsychology
p1858
g2
(g3
tp1859
Rp1860
g562
I4
sg1477
I8
sg227
I8
sVproblem_solving
p1861
I6
sVapplied_psychology
p1862
I2
sVjungian_psychology
p1863
I4
sVcognitive_science
p1864
I4
sg1047
I8
sVpathology
p1865
I4
sVsurgery
p1866
I6
sVcriminology
p1867
I4
sg1295
I14
sg995
I6
sg758
I2
sVpsychology
p1868
I26
sVneurobiology
p1869
I4
sVdevelopmental_psychology
p1870
I32
sVradiology
p1871
I4
sVphysiological_psychology
p1872
I4
sVnatural_science
p1873
I4
sVclinical_psychology
p1874
I24
sVsocial_science
p1875
I2
sVprimatology
p1876
I4
sg1006
I28
sg513
I4
sg634
I3
sVnutrition
p1877
I10
sVbiology
p1878
I8
sg141
I8
sVexperimental_psychology
p1879
I4
sg104
I8
sg105
I2
sVgroup_dynamics
p1880
I1
sg280
I2
sVsocial_psychology
p1881
I36
sVcomparative_psychology
p1882
I4
sVanthropology
p1883
I12
sg311
I8
sVsociology
p1884
I20
sVdynamics
p1885
I1
sVcognitive_neuroscience
p1886
I4
sg1070
I40
sVpsychotherapy
p1887
I20
sVabnormal_psychology
p1888
I8
sg10
I4
sg832
I18
sVmythology
p1889
I6
sVcognitive_psychology
p1890
I28
sVepidemiology
p1891
I4
sg31
I4
sg705
I16
sVeconomics
p1892
I4
sg757
I2
sg309
I16
sVphrenology
p1893
I8
sg286
I2
sVstructuralism
p1894
I4
sg886
I8
sg96
I2
sVphysics
p1895
I2
ssVarcheology
p1896
g2
(g3
tp1897
Rp1898
Vtopography
p1899
I4
sg19
I22
sg309
I4
sg84
I22
sVarcheology
p1900
I4
sVmythology
p1901
I4
ssVetymology
p1902
g2
(g3
tp1903
Rp1904
g30
I2
sg1564
I8
ssVdecomposition
p1905
g2
(g3
tp1906
Rp1907
g8
I2
sValgebra
p1908
I4
sg1438
I4
sVanalysis
p1909
I8
sVdecomposition
p1910
I120
sVfourier_analysis
p1911
I4
ssVnatural_history
p1912
g2
(g3
tp1913
Rp1914
Vichthyology
p1915
I4
sg981
I44
sg1773
I14
sVornithology
p1916
I24
sVhydrology
p1917
I4
sVmineralogy
p1918
I4
sg541
I10
sg926
I8
sVtopography
p1919
I4
sVconchology
p1920
I8
sVzoology
p1921
I12
sVmathematics
p1922
I4
sg704
I40
sVchemistry
p1923
I4
sVgeography
p1924
I8
ssVmicroeconomics
p1925
g2
(g3
tp1926
Rp1927
g36
I1
sg976
I4
sg434
I4
sg1857
I4
sg702
I4
ssVimmunochemistry
p1928
g2
(g3
tp1929
Rp1930
g111
I4
sg366
I2
sg367
I2
sg1583
I2
ssVnuclear_physics
p1931
g2
(g3
tp1932
Rp1933
Vastrophysics
p1934
I2
sg608
I2
ssVphysical_chemistry
p1935
g2
(g3
tp1936
Rp1937
g1453
I4
sg1036
I2
sg313
I8
sVquantum_mechanics
p1938
I2
sVorganic_chemistry
p1939
I4
sg755
I12
sg920
I8
sg170
I4
sVstatistical_mechanics
p1940
I2
sVgroup_theory
p1941
I4
ssVbiology
p1942
g2
(g3
tp1943
Rp1944
g226
I4
sVnatural_science
p1945
I4
sg910
I10
sVmycology
p1946
I4
sg757
I1
sg915
I6
sVprobability_theory
p1947
I4
sVgeography
p1948
I20
sg680
I2
sg758
I4
sg233
I2
sg1255
I12
sVthermodynamics
p1949
I4
sVprotozoology
p1950
I2
sg1497
I4
sg1055
I2
sg926
I12
sg930
I4
sg241
I20
sg242
I8
sVcognitive_science
p1951
I4
sg95
I2
sVmedical_science
p1952
I8
sVbiogeography
p1953
I8
sg359
I60
sg414
I2
sg1696
I8
sg1426
I2
sVcrystallography
p1954
I26
sg518
I4
sVcomparative_anatomy
p1955
I6
sVsociology
p1956
I20
sg955
I96
sg253
I16
sg229
I88
sVnatural_history
p1957
I6
sg1439
I12
sg1698
I2
sVbiology
p1958
I8
sg67
I20
sg1652
I4
sVanthropology
p1959
I6
sg260
I8
sVsociobiology
p1960
I8
sg970
I48
sVmolecular_biology
p1961
I68
sVcryobiology
p1962
I2
sg778
I2
sVeconomics
p1963
I2
sVethology
p1964
I2
sVbiomedical_science
p1965
I2
sg266
I4
sg981
I80
sg270
I4
sVhygiene
p1966
I10
sg709
I80
sVbiomedicine
p1967
I4
sg995
I2
sVoceanography
p1968
I14
sVneurobiology
p1969
I16
sg329
I4
sg664
I8
sg100
I8
sg280
I2
sVenzymology
p1970
I4
sg512
I4
sVcytology
p1971
I4
sVscience
p1972
I14
sg445
I8
sg362
I8
sVclimatology
p1973
I4
sg1675
I8
sVornithology
p1974
I8
sg563
I2
sVgenetic_engineering
p1975
I4
sg496
I4
sg1399
I4
sg1425
I3
sg879
I4
sVphrenology
p1976
I4
sVagronomy
p1977
I4
sg1053
I32
sVgeology
p1978
I4
sVforestry
p1979
I8
sg1059
I2
sg222
I4
sg478
I20
sg193
I4
sVorganic_chemistry
p1980
I10
sVmolecular_genetics
p1981
I12
sg303
I8
sg304
I12
sVveterinary_medicine
p1982
I4
sg1070
I12
sg307
I12
sVherpetology
p1983
I2
sg719
I36
sVcosmology
p1984
I4
sg413
I2
sVbiotechnology
p1985
I4
sg313
I4
sg711
I16
ssVsocial_anthropology
p1986
g2
(g3
tp1987
Rp1988
g701
I4
sg538
I4
ssVsurface_chemistry
p1989
g2
(g3
tp1990
Rp1991
g139
I4
sVmineralogy
p1992
I4
ssVanesthesiology
p1993
g2
(g3
tp1994
Rp1995
g258
I8
sg104
I6
sg10
I6
sg1473
I1
sg512
I4
sg78
I14
sg319
I8
sg210
I2
ssVepidemiology
p1996
g2
(g3
tp1997
Rp1998
g146
I1
sg107
I2
sg1143
I2
sg367
I6
sVscience
p1999
I52
sg366
I4
sVanalysis
p2000
I8
sg84
I2
sVepidemiology
p2001
I32
sg8
I2
sg109
I2
sg78
I26
sVsurgery
p2002
I16
ssVstatistics
p2003
g2
(g3
tp2004
Rp2005
g396
I1
sVinformation_science
p2006
I2
sg1425
I5
sVprobability_theory
p2007
I2
sg319
I6
sg1633
I2
sg1948
I2
sg67
I2
sg1170
I2
sg253
I8
sg28
I4
sVsocial_science
p2008
I6
sg1006
I4
sg110
I1
sg597
I6
sVcriminology
p2009
I1
sg1095
I2
sVcalculus
p2010
I2
sg139
I6
sVfinance
p2011
I12
sValgebra
p2012
I1
sg176
I4
sVepidemiology
p2013
I2
sVstatistics
p2014
I14
sVtopology
p2015
I2
sVlinear_algebra
p2016
I4
sg183
I2
sg976
I6
sg309
I22
sVgeometry
p2017
I18
sVdemography
p2018
I2
sg721
I4
sVbiotechnology
p2019
I2
sVchemistry
p2020
I20
sVphysics
p2021
I27
sVnumerical_analysis
p2022
I2
ssVurology
p2023
g2
(g3
tp2024
Rp2025
g1636
I4
sVoncology
p2026
I8
sVgastroenterology
p2027
I4
sg570
I4
sg1181
I2
sVanatomy
p2028
I4
sg929
I4
sg1473
I4
sg78
I2
sVsurgery
p2029
I4
sg1923
I4
ssVbiophysics
p2030
g2
(g3
tp2031
Rp2032
g1036
I2
sg105
I1
sg215
I3
sg19
I9
sg755
I4
sg920
I4
sg78
I2
sg961
I4
sg122
I4
sg134
I4
sg65
I1
ssVethnology
p2033
g2
(g3
tp2034
Rp2035
g6
I4
sg84
I22
sVethnology
p2036
I4
sg19
I12
sVgeography
p2037
I6
ssVmolecular_biology
p2038
g2
(g3
tp2039
Rp2040
g792
I3
sg869
I4
sg1793
I6
sg1053
I4
sg563
I4
sVgenetic_engineering
p2041
I16
sVmolecular_genetics
p2042
I4
sVlife_science
p2043
I14
sg309
I8
sg661
I4
sg1922
I4
sVmolecular_biology
p2044
I8
sg217
I4
sg110
I4
sVgenetics
p2045
I4
sg312
I8
sg1255
I4
ssVcognitive_psychology
p2046
g2
(g3
tp2047
Rp2048
g706
I12
sVcognitive_psychology
p2049
I6
sg1477
I4
sVproblem_solving
p2050
I6
sVanthropology
p2051
I12
sVbrain_science
p2052
I8
sg1006
I8
ssVgeometry
p2053
g2
(g3
tp2054
Rp2055
g19
I84
sVprojective_geometry
p2056
I6
sVtopography
p2057
I8
sVstatics
p2058
I3
sVanalytic_geometry
p2059
I8
sVelliptic_geometry
p2060
I4
sVundercut
p2061
I26
sVdynamics
p2062
I7
sg917
I8
sg995
I6
sVquantum_mechanics
p2063
I2
sVaffine_geometry
p2064
I12
sg22
I2
sVthermodynamics
p2065
I4
sVkinematics
p2066
I4
sg330
I248
sVfractal_geometry
p2067
I4
sVhyperbolic_geometry
p2068
I4
sVarithmetic
p2069
I4
sg635
I10
sg215
I2
sg193
I8
sVtriangulation
p2070
I4
sVchemistry
p2071
I14
sVspherical_geometry
p2072
I4
sg1070
I4
sg86
I4
sVtopology
p2073
I20
sVspherical_trigonometry
p2074
I4
sVintegral_calculus
p2075
I4
sVlinear_algebra
p2076
I8
sg349
I4
sVplane_geometry
p2077
I4
sg719
I30
sVgeometry
p2078
I12
sVcorrelation
p2079
I4
sVgroup_theory
p2080
I8
sVphysics
p2081
I2
sg1326
I8
ssVethology
p2082
g2
(g3
tp2083
Rp2084
g366
I2
sg8
I4
sg367
I1
sVpsychology
p2085
I4
sg19
I12
sVethology
p2086
I4
sg833
I4
sg392
I4
ssVpharmacogenetics
p2087
g2
(g3
tp2088
Rp2089
g78
I24
sg104
I1
ssVgroup_theory
p2090
g2
(g3
tp2091
Rp2092
g730
I4
sVparticle_physics
p2093
I2
sVgroup_theory
p2094
I12
sg1485
I4
ssVinternal_medicine
p2095
g2
(g3
tp2096
Rp2097
Voncology
p2098
I6
sg140
I4
sVpediatrics
p2099
I8
sVpsychology
p2100
I4
sVgastroenterology
p2101
I4
sVcardiology
p2102
I8
sVgynecology
p2103
I16
sVendocrinology
p2104
I4
sVmicrobiology
p2105
I4
sVemergency_medicine
p2106
I6
sVnephrology
p2107
I4
sg663
I8
sVgeriatrics
p2108
I4
sVneurology
p2109
I4
sVobstetrics
p2110
I14
sg669
I4
sVdermatology
p2111
I16
sg1216
I4
sg2002
I8
sg295
I8
ssVbotany
p2112
g2
(g3
tp2113
Rp2114
g1276
I8
sVbotany
p2115
I10
sg359
I18
sg1665
I20
sg1234
I4
sVmorphology
p2116
I4
sg557
I8
sVpolitics
p2117
I36
sg684
I4
sg167
I2
sVlinguistics
p2118
I6
sg251
I2
sg367
I5
sVpaleontology
p2119
I4
sg229
I4
sg72
I4
sg110
I8
sg366
I72
sg1497
I8
sg1396
I2
sg26
I4
sVphysiology
p2120
I14
sg683
I8
sg308
I1
sg19
I36
sg445
I8
sg9
I5
sg111
I6
sg348
I8
ssVmineralogy
p2121
g2
(g3
tp2122
Rp2123
g122
I4
sVgeology
p2124
I30
sg494
I4
sg19
I14
sg36
I4
sg1346
I8
sg860
I2
sg861
I4
sg20
I2
sg313
I12
sg134
I4
ssVemergency_medicine
p2125
g2
(g3
tp2126
Rp2127
g260
I4
sg504
I6
sVcardiology
p2128
I8
ssVproteomics
p2129
g2
(g3
tp2130
Rp2131
g107
I1
sVmolecular_biology
p2132
I4
sg19
I7
sg366
I1
sg36
I2
sg78
I2
sg111
I2
ssVlexical_semantics
p2133
g2
(g3
tp2134
Rp2135
g852
I12
ssVcognitive_science
p2136
g2
(g3
tp2137
Rp2138
g944
I4
sVphysical_anthropology
p2139
I4
sg33
I4
sVneurology
p2140
I4
sg527
I26
sg253
I22
sVdevelopmental_psychology
p2141
I4
sg1006
I4
sg139
I2
sVexperimental_psychology
p2142
I12
sVsocial_psychology
p2143
I6
sg690
I8
sVnatural_language_processing
p2144
I4
sVcognitive_neuroscience
p2145
I8
sg1070
I26
sg852
I4
sVcognitive_psychology
p2146
I4
sg1169
I4
sVeconomics
p2147
I4
sVethology
p2148
I4
sVcomputational_linguistics
p2149
I6
sVbrain_science
p2150
I4
ssVlinear_programming
p2151
g2
(g3
tp2152
Rp2153
g848
I4
ssVcybernetics
p2154
g2
(g3
tp2155
Rp2156
g222
I1
sg246
I8
sVcybernetics
p2157
I6
sg19
I4
ssVsolid_state_physics
p2158
g2
(g3
tp2159
Rp2160
g967
I4
sg197
I2
ssVzoology
p2161
g2
(g3
tp2162
Rp2163
Vmammalogy
p2164
I10
sVornithology
p2165
I8
sg786
I4
sg208
I6
sg359
I4
sg524
I12
sVichthyology
p2166
I4
sVcomparative_anatomy
p2167
I6
sg251
I2
sg955
I8
sg453
I10
sVconchology
p2168
I4
sg361
I4
sg1828
I4
sVetymology
p2169
I20
sg329
I4
sg797
I4
sg172
I1
sg574
I8
sg1588
I4
sg215
I4
sVpaleontology
p2170
I8
sVmalacology
p2171
I2
sVnatural_history
p2172
I6
sg926
I10
sg304
I4
sg970
I8
sg1353
I4
sg445
I8
sVethnology
p2173
I4
sVmolecular_biology
p2174
I4
sg801
I4
sg1600
I8
sg848
I8
sg134
I2
ssVmacroeconomics
p2175
g2
(g3
tp2176
Rp2177
g19
I2
sg65
I1
sg1734
I4
sg434
I4
sg36
I1
ssVbiomedicine
p2178
g2
(g3
tp2179
Rp2180
Vbiology
p2181
I4
sVmolecular_biology
p2182
I4
sg367
I4
sg142
I2
sg238
I4
sg453
I4
sg19
I12
sVgenetic_engineering
p2183
I4
sg669
I8
sg848
I4
sg303
I1
sg304
I2
sg413
I2
sg150
I1
sg538
I4
sg675
I8
sg513
I8
sg1761
I16
sg879
I4
sg970
I4
ssVradiology
p2184
g2
(g3
tp2185
Rp2186
g107
I2
sVradiology
p2187
I2
sg2101
I8
sg1242
I6
sg1012
I8
sVbiochemistry
p2188
I6
sg19
I2
sVmicrobiology
p2189
I6
sg36
I2
sVnuclear_medicine
p2190
I6
sVanatomy
p2191
I4
sVmedicine
p2192
I12
sg149
I4
sg2002
I20
sg608
I2
sVpathology
p2193
I2
ssVquantum_mechanics
p2194
g2
(g3
tp2195
Rp2196
g1036
I2
sVquantum_field_theory
p2197
I2
sVparticle_physics
p2198
I2
sg848
I4
sg721
I2
ssVphonetics
p2199
g2
(g3
tp2200
Rp2201
g30
I51
sg29
I4
sg309
I4
sVphonology
p2202
I4
sg38
I2
sg210
I1
ssVorthopedics
p2203
g2
(g3
tp2204
Rp2205
g78
I5
sg19
I1
sg2002
I4
sg929
I1
ssVsocial_science
p2206
g2
(g3
tp2207
Rp2208
Vbotany
p2209
I8
sVecology
p2210
I10
sg1504
I4
sVinformation_science
p2211
I4
sVnatural_science
p2212
I2
sg786
I4
sVpaleontology
p2213
I2
sVcognitive_science
p2214
I2
sg670
I24
sVpolitics
p2215
I118
sVagronomy
p2216
I6
sVsurgery
p2217
I2
sVgeography
p2218
I84
sVmacroeconomics
p2219
I4
sVlinguistics
p2220
I28
sg995
I22
sVoceanography
p2221
I2
sVpsychology
p2222
I196
sVdevelopmental_psychology
p2223
I16
sVarcheology
p2224
I2
sValgebra
p2225
I2
sVlife_science
p2226
I6
sVcivics
p2227
I1
sVsocial_science
p2228
I28
sVmedicine
p2229
I10
sVmathematics
p2230
I4
sVcriminology
p2231
I18
sVearth_science
p2232
I6
sg138
I2
sVbiology
p2233
I16
sVsocial_anthropology
p2234
I14
sVfinance
p2235
I8
sVhygiene
p2236
I2
sg704
I2
sVsocial_psychology
p2237
I12
sVmolecular_genetics
p2238
I2
sVanthropology
p2239
I172
sVepidemiology
p2240
I10
sVsociology
p2241
I314
sVethnography
p2242
I26
sg669
I2
sVgenetics
p2243
I12
sVastronomy
p2244
I10
sVphysiology
p2245
I2
sg1029
I4
sg832
I4
sVethnology
p2246
I8
sVchemistry
p2247
I28
sVmedical_science
p2248
I2
sVscience
p2249
I16
sVeconomics
p2250
I270
sVdental_surgery
p2251
I2
sVanalysis
p2252
I2
sg794
I4
sVstructuralism
p2253
I6
sg1857
I14
sVmolecular_biology
p2254
I4
sVpsychiatry
p2255
I4
sVbiotechnology
p2256
I2
sVclimatology
p2257
I2
sg2021
I12
ssVplasma_physics
p2258
g2
(g3
tp2259
Rp2260
Vparticle_physics
p2261
I2
sVseismology
p2262
I2
sg1007
I2
sVnuclear_physics
p2263
I2
sg197
I2
sVmagnetohydrodynamics
p2264
I2
ssVastrophysics
p2265
g2
(g3
tp2266
Rp2267
g606
I2
sVstatistical_mechanics
p2268
I2
sg794
I8
sg340
I18
sVmeteorology
p2269
I12
sVsolar_physics
p2270
I5
sg309
I4
sVcosmology
p2271
I4
sg2066
I4
sVseismology
p2272
I6
sVplasma_physics
p2273
I4
sg19
I4
sg1934
I4
sg1776
I4
sVdynamics
p2274
I2
sg179
I3
sg349
I4
ssVdescriptive_linguistics
p2275
g2
(g3
tp2276
Rp2277
Vphonology
p2278
I4
sVphonetics
p2279
I4
ssVcryobiology
p2280
g2
(g3
tp2281
Rp2282
g19
I2
sg366
I2
ssVpsychopharmacology
p2283
g2
(g3
tp2284
Rp2285
Vpharmacology
p2286
I8
sg19
I4
sg746
I4
sg413
I14
sg587
I2
sVpathology
p2287
I4
sVpsychopharmacology
p2288
I8
ssVnutrition
p2289
g2
(g3
tp2290
Rp2291
g1708
I8
sVdietetics
p2292
I1
sVhygiene
p2293
I4
sg6
I4
sg684
I2
sg319
I8
sg682
I4
sg2045
I20
sg453
I8
sg147
I4
sg2104
I2
sVmedicine
p2294
I14
sVnutrition
p2295
I4
sg366
I10
sVhome_economics
p2296
I6
sg1012
I8
sVepidemiology
p2297
I6
sg10
I8
sg705
I4
sVeconomics
p2298
I6
sg719
I8
sg1358
I4
ssVlimnology
p2299
g2
(g3
tp2300
Rp2301
g19
I2
sg366
I2
sg8
I2
sg134
I2
sg45
I2
ssVcryptanalysis
p2302
g2
(g3
tp2303
Rp2304
Vcryptanalysis
p2305
I10
ssVenzymology
p2306
g2
(g3
tp2307
Rp2308
g453
I14
sg111
I4
sg366
I4
sVanalysis
p2309
I4
ssVcognitive_neuroscience
p2310
g2
(g3
tp2311
Rp2312
g1070
I4
sVanalysis
p2313
I6
sVmemory
p2314
I8
ssVsemantics
p2315
g2
(g3
tp2316
Rp2317
Vlinguistics
p2318
I4
sVgrammar
p2319
I7
sg702
I4
sVmachine_translation
p2320
I6
sVscience
p2321
I8
sVanalysis
p2322
I8
sVlexical_semantics
p2323
I4
sg34
I8
sVformal_semantics
p2324
I14
sVcomputational_linguistics
p2325
I14
sg38
I2
sg172
I1
sVsyntax
p2326
I12
sVsemantics
p2327
I4
ssVperiodontics
p2328
g2
(g3
tp2329
Rp2330
g459
I1
sg1153
I3
ssVembryology
p2331
g2
(g3
tp2332
Rp2333
g366
I6
sg19
I20
sg1188
I8
sg565
I8
sg6
I2
sg10
I4
ssVcytology
p2334
g2
(g3
tp2335
Rp2336
g40
I8
sg366
I4
sg955
I4
sg19
I8
sg94
I4
sg587
I2
sg210
I2
ssVneurolinguistics
p2337
g2
(g3
tp2338
Rp2339
g30
I3
ssVprimatology
p2340
g2
(g3
tp2341
Rp2342
g534
I12
sVecology
p2343
I12
sg1562
I4
sg1565
I4
sg1828
I8
sVmolecular_genetics
p2344
I4
sVsystematics
p2345
I4
sVanatomy
p2346
I4
sVmolecular_biology
p2347
I4
sVdemography
p2348
I4
sg892
I4
sg902
I4
sVfunctional_anatomy
p2349
I4
ssVsystematics
p2350
g2
(g3
tp2351
Rp2352
g1276
I1
sg40
I5
sg366
I8
sg564
I1
sg308
I1
sg1665
I1
sg7
I1
sg36
I3
sg84
I1
sg612
I4
sg19
I6
sg208
I1
sg210
I1
sg552
I2
sg392
I2
ssVpaleoecology
p2353
g2
(g3
tp2354
Rp2355
g19
I2
sVecology
p2356
I6
ssVpolitics
p2357
g2
(g3
tp2358
Rp2359
g396
I1
sg562
I8
sVgeopolitics
p2360
I20
sVgenetic_engineering
p2361
I4
sVpolitics
p2362
I4
sVsurgery
p2363
I4
sVdynamics
p2364
I3
sg526
I4
sVsociology
p2365
I2
sg367
I1
sVpsychology
p2366
I3
sVrealpolitik
p2367
I8
sVsocial_science
p2368
I12
sg77
I1
sVmedicine
p2369
I3
sg346
I1
sg366
I12
sg82
I12
sVanthropology
p2370
I1
sg85
I4
sVethnography
p2371
I4
sVmedical_science
p2372
I6
sVtriangulation
p2373
I4
sg705
I4
sg976
I20
sg309
I18
sg111
I1
sg1364
I8
sg134
I4
ssVkinesiology
p2374
g2
(g3
tp2375
Rp2376
g142
I2
sg19
I20
sVanatomy
p2377
I4
sVkinesiology
p2378
I12
sg78
I4
sg10
I2
ssVapplied_mathematics
p2379
g2
(g3
tp2380
Rp2381
g606
I2
sg534
I2
sg792
I6
sg83
I2
sg49
I4
sg1169
I2
sVanalysis
p2382
I6
sg862
I2
sVgeodesy
p2383
I2
sVgroup_theory
p2384
I2
sVphysics
p2385
I2
sVnumerical_analysis
p2386
I18
sVastronomy
p2387
I2
sg486
I2
ssVnumerical_analysis
p2388
g2
(g3
tp2389
Rp2390
Vdynamics
p2391
I8
sg937
I4
sg309
I12
ssVmechanics
p2392
g2
(g3
tp2393
Rp2394
Vaeronautics
p2395
I2
sVstatics
p2396
I6
sVfluid_mechanics
p2397
I8
sg375
I2
sVmetrology
p2398
I3
sg172
I7
sg193
I2
sVcelestial_mechanics
p2399
I2
sg19
I2
sg309
I1
sVthermodynamics
p2400
I2
sg860
I4
sg85
I1
sg607
I6
sVvector_algebra
p2401
I2
sg1425
I1
sg20
I2
sg1426
I8
sg381
I2
sg134
I4
sg943
I2
ssVpodiatry
p2402
g2
(g3
tp2403
Rp2404
Vdermatology
p2405
I10
sg78
I10
sVsurgery
p2406
I8
sVrheumatology
p2407
I4
sg19
I4
ssVendocrinology
p2408
g2
(g3
tp2409
Rp2410
g1471
I2
sg366
I2
sg150
I2
sg1181
I8
sg19
I10
sg36
I4
sg1828
I4
sg1704
I8
sg149
I4
sg10
I8
ssVgenetic_engineering
p2411
g2
(g3
tp2412
Rp2413
Vforestry
p2414
I6
sg675
I4
sg669
I4
sVeugenics
p2415
I10
ssVproblem_solving
p2416
g2
(g3
tp2417
Rp2418
g139
I2
sg792
I3
sVgenetics
p2419
I8
sg1511
I6
sg801
I3
sVproblem_solving
p2420
I2
sg848
I8
sVmemory
p2421
I2
sg346
I3
ssVimmunopathology
p2422
g2
(g3
tp2423
Rp2424
Vimmunology
p2425
I2
ssVpaleoclimatology
p2426
g2
(g3
tp2427
Rp2428
Vpaleoclimatology
p2429
I8
sg65
I1
sg19
I8
ssVelectromagnetism
p2430
g2
(g3
tp2431
Rp2432
g396
I4
sVfluid_mechanics
p2433
I2
sg549
I4
sVphysics
p2434
I36
sVanalysis
p2435
I6
sg2065
I4
sg967
I2
sg19
I2
sg961
I4
sg552
I4
sg2264
I4
ssVfunctional_genomics
p2436
g2
(g3
tp2437
Rp2438
Vproteomics
p2439
I4
sg534
I2
sg848
I8
ssVagronomy
p2440
g2
(g3
tp2441
Rp2442
Vmedicine
p2443
I4
sVscience
p2444
I6
sg587
I2
sg1588
I2
sg40
I4
ssVcosmology
p2445
g2
(g3
tp2446
Rp2447
g139
I8
sVmythology
p2448
I20
sVparticle_physics
p2449
I2
sg659
I8
sVgeometry
p2450
I16
sg217
I46
sVanalysis
p2451
I4
sVcosmology
p2452
I4
sg8
I8
sg1007
I4
sg1922
I4
sg1071
I6
sg340
I10
sg87
I2
ssVdynamics
p2453
g2
(g3
tp2454
Rp2455
g1036
I24
sVecology
p2456
I1
sVpaleoclimatology
p2457
I1
sVmorphology
p2458
I5
sVpolitics
p2459
I4
sVdynamics
p2460
I87
sVcrystallography
p2461
I1
sg167
I1
sg1330
I1
sVtherapeutics
p2462
I3
sVgenetics
p2463
I3
sVmetrology
p2464
I2
sVbiochemistry
p2465
I2
sg1334
I2
sg171
I1
sg833
I1
sVastrophysics
p2466
I2
sVmathematics
p2467
I4
sVbiology
p2468
I1
sg434
I1
sValgebra
p2469
I1
sg303
I1
sVmedicine
p2470
I1
sVstatistics
p2471
I3
sVsociology
p2472
I2
sg179
I7
sg10
I2
sVsemantics
p2473
I2
sg91
I4
sg444
I8
sg1734
I1
sg309
I3
sVdemography
p2474
I3
sVtoxicology
p2475
I2
sg313
I2
sg340
I2
sVhydrodynamics
p2476
I2
ssVendodontics
p2477
g2
(g3
tp2478
Rp2479
g1153
I6
ssVspeleology
p2480
g2
(g3
tp2481
Rp2482
g19
I4
ssVbiochemistry
p2483
g2
(g3
tp2484
Rp2485
Vphytochemistry
p2486
I4
sg6
I10
sg1313
I4
sg105
I4
sg682
I4
sg2045
I12
sg794
I8
sVmicrobiology
p2487
I8
sg1255
I8
sg1949
I4
sg663
I22
sVmathematics
p2488
I4
sVimmunochemistry
p2489
I4
sg1363
I2
sg139
I12
sVpharmacology
p2490
I16
sVorganic_chemistry
p2491
I6
sg7
I2
sg1757
I8
sg1066
I8
sg832
I8
sVenzymology
p2492
I14
sg111
I4
sg441
I6
sVmolecular_biology
p2493
I8
sg241
I4
sVscience
p2494
I278
sVanalysis
p2495
I4
sVtoxicology
p2496
I4
sg313
I16
sg134
I2
ssVmeteorology
p2497
g2
(g3
tp2498
Rp2499
g336
I12
sg584
I2
sg22
I8
sg217
I60
sVmeteorology
p2500
I22
sVanalysis
p2501
I8
sg1922
I8
sg329
I4
sg857
I2
sg616
I4
sg134
I4
sVearth_science
p2502
I8
sg167
I2
ssVlife_science
p2503
g2
(g3
tp2504
Rp2505
Vbotany
p2506
I8
sVecology
p2507
I6
sVnatural_science
p2508
I8
sVendocrinology
p2509
I2
sVgenetic_engineering
p2510
I4
sVdentistry
p2511
I4
sVbiomedicine
p2512
I14
sVlife_science
p2513
I10
sVnuclear_medicine
p2514
I2
sVcognitive_science
p2515
I4
sg2140
I4
sVspace_medicine
p2516
I10
sg1921
I10
sVsurgery
p2517
I4
sg916
I4
sg1865
I4
sVgeography
p2518
I2
sVgenomics
p2519
I8
sg792
I2
sVgenetics
p2520
I10
sVpsychology
p2521
I6
sVneurobiology
p2522
I4
sVbiochemistry
p2523
I60
sVgeology
p2524
I2
sVmicrobiology
p2525
I24
sVpharmacy
p2526
I6
sVforestry
p2527
I6
sVclinical_psychology
p2528
I2
sVbiotechnology
p2529
I34
sVsocial_science
p2530
I10
sVproteomics
p2531
I6
sVmedicine
p2532
I36
sVmathematics
p2533
I4
sVembryology
p2534
I2
sg635
I4
sVbiology
p2535
I60
sVentomology
p2536
I4
sg1300
I6
sg1497
I10
sVpaleontology
p2537
I2
sVorganic_chemistry
p2538
I2
sVmolecular_genetics
p2539
I4
sVanatomy
p2540
I14
sVepidemiology
p2541
I6
sVsociology
p2542
I4
sVveterinary_medicine
p2543
I2
sVneuroscience
p2544
I4
sg2120
I20
sVneurophysiology
p2545
I2
sVmolecular_biology
p2546
I24
sg869
I8
sVmedical_science
p2547
I6
sVscience
p2548
I54
sg1600
I4
sg719
I4
sVethology
p2549
I2
sVbiomedical_science
p2550
I4
sVvirology
p2551
I2
sVtoxicology
p2552
I2
sVchemistry
p2553
I12
sVphysics
p2554
I2
ssVrheology
p2555
g2
(g3
tp2556
Rp2557
g1169
I4
ssVforestry
p2558
g2
(g3
tp2559
Rp2560
Vnutrition
p2561
I6
sVentomology
p2562
I12
sg359
I6
sVforestry
p2563
I26
sg705
I16
sg976
I4
sVbiology
p2564
I8
sg304
I4
sg682
I4
sg111
I2
sVsilviculture
p2565
I4
sg40
I4
sg970
I4
sVearth_science
p2566
I4
sg917
I4
ssVneonatology
p2567
g2
(g3
tp2568
Rp2569
g78
I2
sg149
I4
sg647
I1
ssVmathematics
p2570
g2
(g3
tp2571
Rp2572
Vmechanics
p2573
I14
sVprojective_geometry
p2574
I4
sg1892
I8
sVavionics
p2575
I4
sVanalytic_geometry
p2576
I8
sVnatural_science
p2577
I6
sVgalois_theory
p2578
I4
sVproblem_solving
p2579
I2
sg2189
I6
sVquantum_field_theory
p2580
I4
sVecology
p2581
I4
sVcybernetics
p2582
I1
sVpolitics
p2583
I1
sg6
I1
sVprobability_theory
p2584
I24
sg1426
I2
sVcosmology
p2585
I12
sg1633
I1
sg167
I2
sg1295
I12
sg995
I44
sg584
I1
sg2521
I4
sVintegral_calculus
p2586
I8
sg1053
I16
sVgeology
p2587
I4
sVpure_mathematics
p2588
I4
sVforestry
p2589
I4
sVmatrix_algebra
p2590
I4
sVdifferential_calculus
p2591
I4
sVsocial_science
p2592
I16
sg1010
I5
sVmedicine
p2593
I4
sVmathematics
p2594
I4
sg1269
I2
sVcalculus_of_variations
p2595
I8
sg937
I32
sg171
I4
sg635
I124
sVhyperbolic_geometry
p2596
I4
sg215
I32
sg434
I5
sg193
I256
sVquantum_physics
p2597
I5
sVoptics
p2598
I5
sg545
I4
sg176
I8
sVastrophysics
p2599
I12
sg1502
I8
sg862
I8
sVfourier_analysis
p2600
I6
sVspherical_geometry
p2601
I4
sg149
I2
sg1071
I8
sVfractal_geometry
p2602
I8
sg1265
I1
sg1323
I124
sg445
I8
sVanatomy
p2603
I4
sVgroup_theory
p2604
I100
sVparticle_physics
p2605
I2
sVquantum_mechanics
p2606
I2
sVsolid_geometry
p2607
I8
sVnatural_language_processing
p2608
I4
sg481
I392
sg705
I8
sVplane_geometry
p2609
I4
sg309
I248
sVnumerical_analysis
p2610
I32
sVlinear_algebra
p2611
I64
sVelementary_geometry
p2612
I4
sVapplied_mathematics
p2613
I6
sVclassical_mechanics
p2614
I2
sVearth_science
p2615
I4
sg95
I1
sg675
I4
sVset_theory
p2616
I40
sg313
I20
sg711
I18
sg1326
I44
sVhydrodynamics
p2617
I2
ssVarithmetic
p2618
g2
(g3
tp2619
Rp2620
Vcalculus
p2621
I4
sg480
I12
sVgeometry
p2622
I8
sg19
I50
sVmemory
p2623
I2
sVmathematics
p2624
I18
sVarithmetic
p2625
I1
sg526
I8
ssVcalculus
p2626
g2
(g3
tp2627
Rp2628
Vanalytic_geometry
p2629
I14
sg62
I6
sg787
I4
sVprobability_theory
p2630
I4
sg1681
I4
sVeconometrics
p2631
I4
sVstatistics
p2632
I2
sVintegral_calculus
p2633
I8
sg79
I148
sg1443
I12
sg215
I32
sg193
I14
sVorganic_chemistry
p2634
I4
sg307
I8
sg1571
I4
sg1323
I4
sVgeometry
p2635
I10
sg705
I20
sg976
I14
sVanalysis
p2636
I14
sVcosmology
p2637
I4
sVlinear_algebra
p2638
I6
sg313
I16
sg188
I6
sVtrigonometry
p2639
I12
ssVhome_economics
p2640
g2
(g3
tp2641
Rp2642
Vscience
p2643
I4
sVdietetics
p2644
I8
sg138
I6
ssVorganic_chemistry
p2645
g2
(g3
tp2646
Rp2647
g296
I8
sVmolecular_biology
p2648
I4
sVquantum_mechanics
p2649
I4
sg348
I4
ssVanatomy
p2650
g2
(g3
tp2651
Rp2652
g40
I6
sVtopography
p2653
I14
sg1828
I12
sVgross_anatomy
p2654
I4
sg272
I4
sg892
I12
sg562
I4
sg116
I16
sg149
I16
sg6
I4
sg1141
I6
sg789
I6
sVangiology
p2655
I4
sVgeography
p2656
I4
sg105
I2
sVcomparative_anatomy
p2657
I4
sg1144
I4
sg2366
I12
sg453
I8
sVfunctional_anatomy
p2658
I6
sg827
I8
sVmedicine
p2659
I28
sg172
I1
sVembryology
p2660
I12
sVteratology
p2661
I4
sg138
I12
sVbiology
p2662
I36
sVphysical_anthropology
p2663
I12
sVbiophysics
p2664
I4
sg832
I158
sVmyology
p2665
I4
sVneuroanatomy
p2666
I12
sg581
I12
sg115
I4
sVscience
p2667
I162
sVanalysis
p2668
I2
sVneurology
p2669
I4
sg348
I8
sg134
I4
ssVseismology
p2670
g2
(g3
tp2671
Rp2672
g857
I4
sg22
I4
sg19
I10
sg20
I12
sg171
I8
sg164
I2
sg134
I6
ssVneuroscience
p2673
g2
(g3
tp2674
Rp2675
Vphysiological_psychology
p2676
I18
sg106
I4
sVproblem_solving
p2677
I2
sVcognitive_science
p2678
I4
sg246
I36
sg459
I4
sg1258
I4
sg514
I4
sg1152
I4
sg2666
I6
sg253
I4
sg1793
I4
sg871
I4
sg2487
I4
sg367
I6
sVmemory
p2679
I4
sVmedicine
p2680
I14
sg172
I2
sVpsychopharmacology
p2681
I8
sg366
I4
sg647
I2
sg104
I2
sg577
I10
sg304
I16
sg2541
I12
sg437
I4
sVcognitive_psychology
p2682
I4
sg512
I4
sVcognitive_neuroscience
p2683
I4
sVneuroscience
p2684
I4
sg970
I8
sVmolecular_biology
p2685
I10
sVimmunology
p2686
I4
sg183
I66
sg36
I2
sVphrenology
p2687
I14
sVcorrelation
p2688
I4
sg311
I8
sg313
I6
sg134
I4
ssVmythology
p2689
g2
(g3
tp2690
Rp2691
Vnatural_science
p2692
I4
sg541
I36
sg2637
I4
sg1393
I2
sVmythology
p2693
I124
sVpragmatics
p2694
I2
ssVastronomy
p2695
g2
(g3
tp2696
Rp2697
Vaeronautics
p2698
I8
sVastrometry
p2699
I12
sVspace_medicine
p2700
I4
sVpathology
p2701
I4
sg65
I2
sg917
I4
sg50
I2
sg529
I4
sg2469
I4
sVlife_science
p2702
I4
sVradio_astronomy
p2703
I4
sVsocial_science
p2704
I2
sg663
I16
sg597
I17
sVearth_science
p2705
I4
sg139
I8
sg71
I10
sVsolar_physics
p2706
I2
sg552
I3
sg26
I12
sg1007
I12
sg20
I12
sVspherical_geometry
p2707
I4
sVastronomy
p2708
I58
sg1155
I12
sVcelestial_mechanics
p2709
I8
sVspherical_trigonometry
p2710
I4
sVparticle_physics
p2711
I2
sg778
I4
sVscience
p2712
I8
sg1600
I8
sVanalysis
p2713
I4
sg544
I16
sg187
I12
sg711
I8
sVtrigonometry
p2714
I8
ssVmagnetohydrodynamics
p2715
g2
(g3
tp2716
Rp2717
g396
I1
sg19
I2
sg134
I1
sg2617
I2
ssVtrigonometry
p2718
g2
(g3
tp2719
Rp2720
Vcalculus
p2721
I12
sg179
I4
sg83
I8
sVanalysis
p2722
I12
sg346
I103
sVchemistry
p2723
I20
sVphysics
p2724
I17
sg1461
I12
ssVphysics
p2725
g2
(g3
tp2726
Rp2727
g226
I4
sVnatural_science
p2728
I2
sVquantum_chromodynamics
p2729
I2
sg147
I2
sg235
I2
sg920
I16
sVphysical_geography
p2730
I2
sVstatics
p2731
I4
sg82
I2
sg704
I10
sVquantum_physics
p2732
I4
sVparticle_physics
p2733
I16
sVquantum_field_theory
p2734
I8
sg552
I26
sg1708
I4
sg1102
I8
sg1427
I2
sg1838
I2
sg367
I2
sg253
I2
sVnuclear_medicine
p2735
I2
sVmedicine
p2736
I14
sVelectronics
p2737
I4
sVnuclear_physics
p2738
I4
sVphysical_chemistry
p2739
I3
sg215
I16
sg967
I12
sg581
I6
sg1323
I4
sVtriangulation
p2740
I2
sVmolecular_biology
p2741
I1
sVhydrology
p2742
I2
sg481
I2
sVeconomics
p2743
I3
sVclassical_mechanics
p2744
I2
sVgroup_theory
p2745
I2
sg2617
I6
sg1233
I4
sg452
I4
sVcognitive_science
p2746
I2
sg6
I2
sVstatistics
p2747
I2
sg168
I6
sVquantum_mechanics
p2748
I28
sVkinematics
p2749
I2
sVsocial_science
p2750
I7
sVplasma_physics
p2751
I8
sg1007
I20
sVstatistical_mechanics
p2752
I6
sVelectromagnetism
p2753
I18
sg1434
I2
sVfluid_mechanics
p2754
I2
sg1018
I2
sg1972
I8
sg1029
I2
sVapplied_mathematics
p2755
I2
sVtrigonometry
p2756
I32
sg1036
I30
sVquantum_electrodynamics
p2757
I2
sVanalytic_geometry
p2758
I2
sVgenetic_engineering
p2759
I2
sVsolar_physics
p2760
I2
sg1047
I5
sg1632
I2
sg1236
I4
sVlife_science
p2761
I27
sg707
I12
sg222
I14
sg2069
I4
sg635
I6
sg592
I2
sVorganic_chemistry
p2762
I2
sg1066
I2
sVanatomy
p2763
I4
sVhydrostatics
p2764
I2
sg863
I4
sg149
I4
sg1071
I2
sg943
I2
sVcelestial_mechanics
p2765
I2
sVacoustics
p2766
I2
sg309
I6
sg544
I4
sVcorrelation
p2767
I8
sg675
I4
sg313
I10
sVphysics
p2768
I14
ssVmicroelectronics
p2769
g2
(g3
tp2770
Rp2771
Velectronics
p2772
I16
ssVcomputational_linguistics
p2773
g2
(g3
tp2774
Rp2775
Vlinguistics
p2776
I4
sVmachine_translation
p2777
I12
sg33
I4
sVnatural_language_processing
p2778
I8
sg1570
I2
sg1571
I4
ssVspurious_correlation
p2779
g2
(g3
tp2780
Rp2781
Vnutrition
p2782
I2
ssVpsychiatry
p2783
g2
(g3
tp2784
Rp2785
g105
I2
sg366
I2
sg1170
I2
sg141
I1
sg2366
I40
sg19
I4
sg149
I4
sVneuropsychiatry
p2786
I6
sg94
I4
sg176
I8
sg260
I4
sVgeriatrics
p2787
I4
sVradiology
p2788
I20
sg108
I20
sg329
I4
sg513
I4
sVgenetics
p2789
I1
sg440
I6
sVpsychopharmacology
p2790
I14
sVpathology
p2791
I12
sVpolitics
p2792
I4
ssVbiotechnology
p2793
g2
(g3
tp2794
Rp2795
g40
I6
sg270
I2
sVgenetic_engineering
p2796
I42
sVlife_science
p2797
I8
sVbiomedicine
p2798
I12
sg1425
I1
sVagronomy
p2799
I4
sg67
I18
sg150
I1
sg2243
I20
sg1053
I8
sVmicrobiology
p2800
I4
sg72
I2
sg663
I6
sg1698
I4
sVnutrition
p2801
I4
sVbiology
p2802
I4
sg1778
I4
sg1302
I4
sg1970
I4
sg669
I8
sg10
I2
sVmolecular_biology
p2803
I4
sg705
I4
sVanalysis
p2804
I4
sVvirology
p2805
I24
sg675
I36
sg2553
I4
ssVcosmetic_dentistry
p2806
g2
(g3
tp2807
Rp2808
Vendodontics
p2809
I8
sVorthodontics
p2810
I90
sVdental_surgery
p2811
I4
ss.