(dp0
Vscientific_computing
p1
ccollections
defaultdict
p2
(c__builtin__
int
p3
tp4
Rp5
Vmathematics
p6
I4
sVmanufacturing
p7
I2
sVnumerical_analysis
p8
I4
sVanalysis
p9
I4
sVsignal_processing
p10
I4
ssVfood_processing
p11
g2
(g3
tp12
Rp13
Vmanufacturing
p14
I4
ssVchemical_engineering
p15
g2
(g3
tp16
Rp17
Vfluid_mechanics
p18
I4
sVchemical_engineering
p19
I4
sVbiochemistry
p20
I4
sVthermodynamics
p21
I28
sVengineering
p22
I20
sVmaterials_science
p23
I2
sVmathematics
p24
I4
sVethics
p25
I4
sVchemistry
p26
I12
sVphysics
p27
I2
ssVbiostatistics
p28
g2
(g3
tp29
Rp30
Vgenomics
p31
I8
sVgenetics
p32
I8
sVprobability
p33
I1
sVscience
p34
I10
sVanalysis
p35
I1
sVmathematics
p36
I1
sVeconometrics
p37
I2
ssVsyntax
p38
g2
(g3
tp39
Rp40
Vlinguistics
p41
I88
sVpsycholinguistics
p42
I2
sVcommunication
p43
I8
sg35
I2
sVsyntax
p44
I400
sVsociolinguistics
p45
I2
sVmorphology
p46
I2
sVmathematics
p47
I8
sVsemantics
p48
I30
ssVfluid_dynamics
p49
g2
(g3
tp50
Rp51
Vaerodynamics
p52
I2
sVquantum_physics
p53
I2
sVphysics
p54
I2
sg47
I2
ssVmorphology
p55
g2
(g3
tp56
Rp57
g41
I56
sVbotany
p58
I4
sVcommunication
p59
I4
sVentomology
p60
I2
sVmicrobiology
p61
I2
sg35
I4
sVsyntax
p62
I2
sVphonology
p63
I8
sVzoology
p64
I6
sVengineering
p65
I6
sg34
I8
sVmorphology
p66
I54
sg45
I2
sVchemistry
p67
I8
sVphysiology
p68
I12
sVcomposition
p69
I22
sVsemantics
p70
I8
sVhistory
p71
I2
ssValgebraic_geometry
p72
g2
(g3
tp73
Rp74
Vnumber_theory
p75
I4
ssVmedicinal_chemistry
p76
g2
(g3
tp77
Rp78
Vchemistry
p79
I4
sVpharmacology
p80
I4
ssVnetworks
p81
g2
(g3
tp82
Rp83
Vinstrumentation
p84
I2
sVclassics
p85
I10
sVnetworking
p86
I2
sVgenomics
p87
I2
sVcommunication
p88
I8
sg35
I4
sVanthropology
p89
I1
sVepidemiology
p90
I1
sVengineering
p91
I4
sVmusic
p92
I1
sVscience
p93
I2
sVchemistry
p94
I2
sVphysics
p95
I2
sVnetworks
p96
I12
sVhistory
p97
I4
ssVgeography
p98
g2
(g3
tp99
Rp100
Vbotany
p101
I2
sVecology
p102
I4
sg88
I12
sVengineering
p103
I4
sVsocial_science
p104
I16
sVpublic_policy
p105
I4
sVglaciology
p106
I6
sVnetworks
p107
I2
sVgeography
p108
I20
sVgeotechnical_engineering
p109
I4
sVgenomics
p110
I4
sVsociology
p111
I12
sVoceanography
p112
I4
sVpsychology
p113
I4
sVhumanities
p114
I19
sVinformation_systems
p115
I2
sVgeology
p116
I4
sVreligion
p117
I2
sVmusic
p118
I4
sVlinguistics
p119
I1
sVmathematics
p120
I2
sVcomputer_science
p121
I4
sValgebra
p122
I8
sVphilosophy
p123
I8
sVpolitical_science
p124
I4
sg89
I8
sVhuman_geography
p125
I8
sg25
I2
sVmeteorology
p126
I2
sVclimate
p127
I16
sVclassics
p128
I2
sVscience
p129
I90
sVeconomics
p130
I8
sVanalysis
p131
I4
sVtheology
p132
I16
sVchemistry
p133
I20
sVhistory
p134
I12
ssVgeotechnical_engineering
p135
g2
(g3
tp136
Rp137
Vnumerical_analysis
p138
I4
sg9
I4
ssVlinguistics
p139
g2
(g3
tp140
Rp141
Vpsycholinguistics
p142
I20
sVcommunication
p143
I9
sVsyntax
p144
I100
sVcultural_anthropology
p145
I4
sVengineering
p146
I8
sVsecond_language_acquisition
p147
I12
sVmorphology
p148
I56
sVpathology
p149
I4
sVgeography
p150
I1
sVlinguistics
p151
I8
sVsociology
p152
I12
sg32
I8
sVpsychology
p153
I8
sg114
I14
sVphonetics
p154
I56
sVmathematics
p155
I16
sVartificial_intelligence
p156
I8
sVcomputer_science
p157
I8
sVpaleontology
p158
I4
sVphilosophy
p159
I4
sVanthropology
p160
I12
sVsociolinguistics
p161
I56
sVpragmatics
p162
I26
sVsemantics
p163
I64
sVtypological_linguistics
p164
I4
sVscience
p165
I23
sVanalysis
p166
I16
sVcomposition
p167
I1
sVphonology
p168
I72
sVcomputational_linguistics
p169
I16
sVneurolinguistics
p170
I3
sVapplied_linguistics
p171
I6
sg71
I12
ssVcomputational_biology
p172
g2
(g3
tp173
Rp174
g31
I4
sVimmunology
p175
I4
sVnetworks
p176
I2
sg166
I4
ssVanalytical_chemistry
p177
g2
(g3
tp178
Rp179
Vinstrumentation
p180
I4
sg166
I4
sVthermodynamics
p181
I4
sVsignal_processing
p182
I4
sVoptics
p183
I2
sVnetworks
p184
I2
ssVclinical_psychology
p185
g2
(g3
tp186
Rp187
Vcomputational_linguistics
p188
I4
ssVdigital_communications
p189
g2
(g3
tp190
Rp191
Vgraphics
p192
I2
ssVfood_science
p193
g2
(g3
tp194
Rp195
Vscience
p196
I8
sVnutrition
p197
I14
sVchemical_engineering
p198
I4
sVpsychology
p199
I4
sVmathematics
p200
I12
sVgeology
p201
I4
sVbiochemistry
p202
I4
sVfood_processing
p203
I8
sVmicrobiology
p204
I26
sg166
I4
sVreligion
p205
I4
sVengineering
p206
I4
sVmusic
p207
I4
sVmechanical_engineering
p208
I4
sVmaterials_science
p209
I2
sVchemistry
p210
I16
sVphysics
p211
I2
sVgeography
p212
I4
ssVvulcanology
p213
g2
(g3
tp214
Rp215
g34
I2
sVgeophysics
p216
I2
ssVthermodynamics
p217
g2
(g3
tp218
Rp219
Vchemistry
p220
I7
sVbiochemistry
p221
I4
sg34
I9
sVeconomics
p222
I8
sg166
I1
sg146
I4
sVgeochemistry
p223
I4
sVnuclear_physics
p224
I2
sVphysics
p225
I20
ssVpoultry_science
p226
g2
(g3
tp227
Rp228
g175
I4
ssVmaterials_science
p229
g2
(g3
tp230
Rp231
Vengineering_physics
p232
I1
sVphotonics
p233
I2
sVscience
p234
I2
sVanalysis
p235
I2
sVmetallurgy
p236
I4
sg146
I2
sVbiomaterials
p237
I2
sg95
I1
ssVbiomedical
p238
g2
(g3
tp239
Rp240
Vpsychology
p241
I4
sVbiochemistry
p242
I4
sg222
I8
sVbiomedical
p243
I6
sg25
I2
sg94
I4
sg27
I6
ssVamerican_politics
p244
g2
(g3
tp245
Rp246
Vreligion
p247
I4
sVanalysis
p248
I2
sVpublic_policy
p249
I4
ssVbiometry
p250
g2
(g3
tp251
Rp252
g35
I4
ssVphysical_science
p253
g2
(g3
tp254
Rp255
Vbotany
p256
I4
sVeconomics
p257
I6
sVgeography
p258
I2
sVcommunication
p259
I6
sVrobotics
p260
I4
sVengineering
p261
I12
sVfluid_dynamics
p262
I3
sVecology
p263
I2
sVneuroscience
p264
I4
sVzoology
p265
I14
sVcomputer_engineering
p266
I4
sg152
I6
sVgenetics
p267
I10
sVpsychology
p268
I8
sVhumanities
p269
I6
sVbiochemistry
p270
I2
sVastronomy_and_astrophysics
p271
I2
sVinformation_systems
p272
I3
sVlife_science
p273
I2
sVmetallurgy
p274
I4
sVthermodynamics
p275
I8
sVgeochemistry
p276
I2
sVsocial_science
p277
I4
sVstructural_biology
p278
I2
sVmathematics
p279
I26
sVnuclear_physics
p280
I13
sVartificial_intelligence
p281
I2
sVearth_science
p282
I26
sVcomputer_science
p283
I6
sVgeology
p284
I14
sVorganic_chemistry
p285
I2
sVquantum_physics
p286
I2
sVanthropology
p287
I6
sVsoftware_engineering
p288
I10
sVfluid_mechanics
p289
I6
sVgeophysics
p290
I6
sVenvironmental_engineering
p291
I6
sVoceanography
p292
I6
sVmanufacturing
p293
I2
sVphysiology
p294
I2
sVmolecular_biology
p295
I16
sVscience
p296
I16
sVmeteorology
p297
I2
sg95
I14
sVcosmology
p298
I6
sVphysical_chemistry
p299
I6
sVphilosophy_of_science
p300
I6
sVchemistry
p301
I128
sVoptics
p302
I6
sVhistory
p303
I6
ssVhistory_of_religion
p304
g2
(g3
tp305
Rp306
g247
I4
sVhistory
p307
I4
ssVcontrol_theory
p308
g2
(g3
tp309
Rp310
Vanalysis
p311
I4
ssVpharmacology
p312
g2
(g3
tp313
Rp314
Vnutrition
p315
I12
sVpsychology
p316
I26
sVpharmacology
p317
I6
sVgenomics
p318
I1
sg34
I112
sVphilosophy
p319
I4
sVbiomaterials
p320
I2
sVneuroscience
p321
I2
sVtoxicology
p322
I4
sVchemistry
p323
I4
sVpharmaceutics
p324
I1
sVhistory
p325
I4
ssVgeology
p326
g2
(g3
tp327
Rp328
Vbotany
p329
I4
sg64
I2
sg146
I4
sVmorphology
p330
I4
sVglaciology
p331
I4
sg150
I4
sVoceanography
p332
I16
sVpaleontology
p333
I4
sVreligion
p334
I12
sVgeochemistry
p335
I4
sg36
I2
sVcomposition
p336
I4
sVearth_science
p337
I6
sVgeology
p338
I12
sVanthropology
p339
I8
sVgeophysics
p340
I8
sVseismology
p341
I12
sVcivil_engineering
p342
I4
sVclimate
p343
I2
sVchemistry
p344
I2
sVscience
p345
I336
sVmeteorology
p346
I8
sVanalysis
p347
I2
sg128
I2
sg27
I10
sg303
I8
ssVquantum_physics
p348
g2
(g3
tp349
Rp350
Vhistory
p351
I2
sVphilosophy
p352
I2
sVoptics
p353
I4
sVcosmology
p354
I2
sValgebra
p355
I2
ssVentomology
p356
g2
(g3
tp357
Rp358
g318
I1
sVecology
p359
I10
sVgenetics
p360
I1
sg221
I2
sg34
I12
sg64
I10
sVmorphology
p361
I2
sVpathology
p362
I2
sg68
I2
ssVsoftware_engineering
p363
g2
(g3
tp364
Rp365
Vcomputer_science
p366
I4
sVsoftware_engineering
p367
I4
sVpsychology
p368
I16
sVcommunication
p369
I4
sg166
I16
sg146
I4
sg293
I2
sVartificial_intelligence
p370
I4
ssVcontinental_philosophy
p371
g2
(g3
tp372
Rp373
Vphilosophy_of_science
p374
I4
ssVstructural_materials
p375
g2
(g3
tp376
Rp377
g166
I2
ssVsignal_processing
p378
g2
(g3
tp379
Rp380
Vcommunication
p381
I22
sVfluid_dynamics
p382
I6
sg9
I8
sValgebra
p383
I4
sVsignal_processing
p384
I18
ssVprobability
p385
g2
(g3
tp386
Rp387
Vcomputer_science
p388
I4
sVclimate
p389
I4
sVphilosophy
p390
I4
sg32
I4
sVbiostatistics
p391
I1
sVprobability
p392
I8
sVcommunication
p393
I8
sVphonetics
p394
I4
sVeconomics
p395
I4
sVanalysis
p396
I16
sVanthropology
p397
I4
sg199
I4
sVquantum_physics
p398
I3
sVsignal_processing
p399
I4
sg47
I4
sVpathology
p400
I8
sVhistory
p401
I62
sVphysics
p402
I2
sVcomposition
p403
I4
sVscience
p404
I8
ssVnumber_theory
p405
g2
(g3
tp406
Rp407
g159
I4
sVnumber_theory
p408
I4
sg9
I4
ssVhuman_geography
p409
g2
(g3
tp410
Rp411
Vhistory
p412
I8
sVphilosophy
p413
I4
sVsocial_science
p414
I12
sVeconomics
p415
I4
sVgeography
p416
I4
ssVatmospheric_sciences
p417
g2
(g3
tp418
Rp419
Vvulcanology
p420
I2
sVmeteorology
p421
I2
sg332
I2
ssVenvironmental_sciences
p422
g2
(g3
tp423
Rp424
Vecology
p425
I6
sVengineering
p426
I4
sg395
I2
sVsociology
p427
I2
sVgenetics
p428
I2
sVpaleobiology
p429
I2
sVinternational_relations
p430
I2
sg211
I4
sVmaterials_science
p431
I4
sg6
I4
sVgeology
p432
I2
sVhuman_nutrition
p433
I5
sg397
I2
sVoceanography
p434
I2
sVsoil_science
p435
I2
sVatmospheric_sciences
p436
I2
sVclimate
p437
I2
sg93
I4
sVmeteorology
p438
I2
sVtoxicology
p439
I4
sVchemistry
p440
I4
sVenvironmental_sciences
p441
I2
sVpublic_health
p442
I4
ssVhardware_systems
p443
g2
(g3
tp444
Rp445
Vcomputational_biology
p446
I2
ssVmeteorology
p447
g2
(g3
tp448
Rp449
g84
I4
sVclimate
p450
I6
sg123
I4
sVoceanography
p451
I2
sVgeology
p452
I8
sVscience
p453
I60
sVmeteorology
p454
I22
sVanalysis
p455
I8
sVengineering
p456
I2
sg6
I8
sg150
I2
sVphysics
p457
I4
sVearth_science
p458
I8
sVhistory
p459
I4
ssVengineering_science
p460
g2
(g3
tp461
Rp462
Vcomputer_science
p463
I2
sVfluid_mechanics
p464
I2
sVchemical_engineering
p465
I12
sg52
I4
sVeconomics
p466
I4
sVindustrial_engineering
p467
I32
sg196
I12
sVthermodynamics
p468
I14
sg146
I4
sVfluid_dynamics
p469
I2
sVcommunication
p470
I4
sVelectrical_engineering
p471
I4
sVnuclear_physics
p472
I3
sg402
I4
sVenvironmental_sciences
p473
I2
sg26
I4
ssVbiomechanics
p474
g2
(g3
tp475
Rp476
g64
I1
sg34
I14
sVkinesiology
p477
I3
sg320
I2
sg457
I1
ssVimmunology
p478
g2
(g3
tp479
Rp480
Vmolecular_biology
p481
I10
sVimmunology
p482
I42
sg34
I42
sg61
I10
sVanalysis
p483
I10
sVimmunopathology
p484
I2
sg456
I8
sg360
I3
sValgorithms
p485
I1
sVcomposition
p486
I6
sg362
I2
sVpublic_health
p487
I4
ssVoceanography
p488
g2
(g3
tp489
Rp490
g318
I4
sVclimate
p491
I6
sg425
I4
sVoceanography
p492
I4
sVgeology
p493
I16
sg34
I4
sg346
I8
sg35
I8
sVaquatic_ecology
p494
I4
sg36
I4
sVbiogeochemistry
p495
I4
sg220
I4
sg457
I2
sg68
I4
sg150
I4
ssVvirology
p496
g2
(g3
tp497
Rp498
Vmolecular_biology
p499
I8
sg360
I12
sg34
I14
sg61
I38
sg90
I4
sVvirology
p500
I4
ssVphonology
p501
g2
(g3
tp502
Rp503
Vmorphology
p504
I4
sg119
I87
sg45
I2
ssVethnic_studies
p505
g2
(g3
tp506
Rp507
Vamerican_studies
p508
I1
ssVphilosophy_of_language
p509
g2
(g3
tp510
Rp511
Vepistemology
p512
I4
sg159
I4
sVphilosophy_of_mind
p513
I4
sVmetaphysics
p514
I4
sg48
I4
ssVintellectual_history
p515
g2
(g3
tp516
Rp517
g395
I4
sg196
I4
sVhistory_of_philosophy
p518
I6
sg247
I4
sVphilosophy
p519
I6
sVhistory
p520
I8
ssVbiomaterials
p521
g2
(g3
tp522
Rp523
g360
I2
sVpharmacology
p524
I2
sg221
I2
sg34
I1
sg456
I4
sVbiomechanics
p525
I2
ssVdevelopmental_biology
p526
g2
(g3
tp527
Rp528
g31
I4
sVmolecular_biology
p529
I4
sg32
I4
sVnutrition
p530
I8
sg9
I4
sVzoology
p531
I4
sVcell_biology
p532
I8
sVphysiology
p533
I4
ssVdairy_science
p534
g2
(g3
tp535
Rp536
g242
I4
ssVclinical_nutrition
p537
g2
(g3
tp538
Rp539
Vnutrition
p540
I4
ssVepidemiology
p541
g2
(g3
tp542
Rp543
g318
I1
sg359
I2
sg360
I6
sVbiostatistics
p544
I4
sVscience
p545
I52
sVanalysis
p546
I8
sVnetworks
p547
I1
sg89
I2
sVepidemiology
p548
I32
sVparasitology
p549
I2
sVvirology
p550
I2
sVnutritional_epidemiology
p551
I4
sVpublic_health
p552
I8
sg459
I4
ssVcompilers
p553
g2
(g3
tp554
Rp555
g192
I2
sVcompilers
p556
I2
ssVoptics
p557
g2
(g3
tp558
Rp559
g84
I3
sVgraphics
p560
I1
sg457
I2
sVphotonics
p561
I7
sVscience
p562
I25
sg123
I1
sVlife_science
p563
I10
sg35
I3
sVelectromagnetics
p564
I2
sg456
I7
sVcommunication
p565
I8
sg47
I5
sg220
I4
sVoptics
p566
I140
sVnetworks
p567
I2
sVhistory
p568
I4
ssVpublic_health
p569
g2
(g3
tp570
Rp571
g197
I8
sg127
I4
sVsociology
p572
I4
sg153
I4
sVprobability
p573
I4
sg453
I4
sg544
I4
sVeconomics
p574
I8
sg311
I4
sVanthropology
p575
I8
sVepidemiology
p576
I28
sVhealth_communication
p577
I6
sVsocial_science
p578
I10
sVenvironmental_health
p579
I12
sVpublic_policy
p580
I4
sg322
I8
sVpublic_health
p581
I24
sg413
I4
sVcultural_history
p582
I4
ssVpublic_affairs
p583
g2
(g3
tp584
Rp585
Vpublic_policy
p586
I2
sVethics
p587
I2
sVeconomics
p588
I1
sVpublic_health
p589
I6
sVpolitical_science
p590
I2
ssVecology
p591
g2
(g3
tp592
Rp593
g58
I4
sVeconomics
p594
I24
sVmodels_and_methods
p595
I2
sg43
I8
sg206
I14
sVecology
p596
I2
sg64
I14
sVpublic_policy
p597
I4
sg362
I2
sg150
I4
sg428
I8
sg153
I8
sVmicrobiology
p598
I4
sVreligion
p599
I4
sg549
I2
sVmathematics
p600
I4
sg495
I4
sg167
I2
sg60
I4
sg116
I12
sVphilosophy
p601
I22
sg89
I4
sg90
I2
sg451
I2
sVethics
p602
I2
sVphysiology
p603
I2
sg127
I74
sg234
I32
sVmeteorology
p604
I8
sg131
I4
sVcosmology
p605
I4
sg94
I4
sg95
I4
sVpublic_health
p606
I4
sVhistory
p607
I8
ssVpsycholinguistics
p608
g2
(g3
tp609
Rp610
g41
I19
sg316
I2
sVsyntax
p611
I2
ssVanimal_science
p612
g2
(g3
tp613
Rp614
Vcomputer_science
p615
I4
sg197
I2
sg428
I16
sVpsychology
p616
I2
sg31
I4
sVbiochemistry
p617
I2
sVentomology
p618
I2
sVcommunity_nutrition
p619
I2
sVzoology
p620
I2
sVagronomy
p621
I6
sg26
I4
sVphysiology
p622
I2
ssVmass_communication
p623
g2
(g3
tp624
Rp625
Vcommunication
p626
I8
sVmass_communication
p627
I6
sVmusic
p628
I6
sg303
I6
ssVplant_pathology
p629
g2
(g3
tp630
Rp631
g425
I4
sVplant_science
p632
I4
sVentomology
p633
I4
sg576
I4
sg426
I4
sg149
I4
ssVphysical_processes
p634
g2
(g3
tp635
Rp636
Vclimate
p637
I2
sg202
I4
sg196
I4
sVmaterials_science
p638
I2
sVpathology
p639
I4
sg211
I2
sg533
I4
ssVancient_history
p640
g2
(g3
tp641
Rp642
g247
I4
sVhistory
p643
I10
sg416
I6
ssVcultural_anthropology
p644
g2
(g3
tp645
Rp646
g568
I4
sg153
I4
sVhumanities
p647
I4
ssVpublic_policy
p648
g2
(g3
tp649
Rp650
Vnutrition
p651
I4
sVecology
p652
I4
sg428
I4
sVscience
p653
I4
sVsocial_psychology
p654
I4
sVeconomics
p655
I4
sVpublic_affairs
p656
I2
sVpolitical_science
p657
I12
sg247
I4
sg9
I4
sVpublic_administration
p658
I8
sVpublic_policy
p659
I8
sg587
I2
sVpublic_health
p660
I12
sg643
I10
ssVprogramming_languages
p661
g2
(g3
tp662
Rp663
Vsemantics
p664
I2
ssVeconometrics
p665
g2
(g3
tp666
Rp667
g391
I2
sg34
I2
sVeconomics
p668
I4
sVanalysis
p669
I13
sg36
I1
sVcriminology
p670
I4
ssVplant_biology
p671
g2
(g3
tp672
Rp673
g31
I4
sg425
I4
sVcell_biology
p674
I4
sVpharmacology
p675
I4
sg20
I4
sVmolecular_biology
p676
I4
sg32
I4
sg603
I4
ssVcriminology
p677
g2
(g3
tp678
Rp679
Vsociology
p680
I4
sg153
I4
sg34
I6
sg395
I4
sg35
I4
sVpathology
p681
I4
sg568
I4
sVcriminology
p682
I4
ssVaerospace_engineering
p683
g2
(g3
tp684
Rp685
g47
I4
sVaerodynamics
p686
I4
ssVsociology
p687
g2
(g3
tp688
Rp689
g58
I2
sVhistory_of_philosophy
p690
I4
sg259
I8
sg64
I2
sg456
I6
sVcultural_anthropology
p691
I4
sVcriminology
p692
I58
sg41
I3
sVsociology
p693
I12
sg368
I8
sg114
I26
sVreligion
p694
I26
sVsocial_history
p695
I12
sVmusic
p696
I10
sg155
I1
sVgeography
p697
I4
sVrace_and_ethnicity
p698
I4
sVrural_sociology
p699
I4
sVsocial_anthropology
p700
I4
sVepistemology
p701
I4
sVsocial_psychology
p702
I16
sg159
I4
sVpolitical_science
p703
I4
sVanthropology
p704
I4
sVinternational_relations
p705
I3
sg602
I2
sg234
I4
sVeconomics
p706
I4
sVanalysis
p707
I8
sVtheology
p708
I4
sg344
I2
sg54
I2
sg643
I4
ssVgenetics
p709
g2
(g3
tp710
Rp711
Vbotany
p712
I5
sg425
I4
sVengineering
p713
I3
sVsocial_anthropology
p714
I4
sg321
I6
sg64
I7
sg639
I4
sg123
I4
sVhorticulture
p715
I1
sg110
I5
sg572
I8
sVgenetics
p716
I140
sVbiochemistry
p717
I4
sg61
I8
sVplant_genetics
p718
I6
sg549
I1
sVmusic
p719
I8
sg167
I1
sVcomparative_politics
p720
I4
sVcomputer_science
p721
I4
sVnutrition
p722
I36
sg60
I1
sVmolecular_genetics
p723
I4
sg339
I2
sg576
I4
sVcomputational_biology
p724
I4
sVimmunology
p725
I3
sg602
I10
sVphysiology
p726
I6
sVmolecular_biology
p727
I14
sVcell_biology
p728
I4
sVscience
p729
I12
sg166
I12
sg320
I2
sg550
I2
sVbacteriology
p730
I2
sVtoxicology
p731
I1
sg220
I16
sg457
I2
sg459
I8
ssVpsychology
p732
g2
(g3
tp733
Rp734
Vecology
p735
I4
sg142
I8
sg88
I8
sg456
I6
sVhealth_psychology
p736
I4
sVpolymer_science
p737
I4
sVinternational_relations
p738
I3
sVpathology
p739
I4
sVcriminology
p740
I4
sVlinguistics
p741
I14
sVsociology
p742
I20
sVpsychology
p743
I26
sg114
I14
sVdevelopmental_psychology
p744
I32
sVdynamical_systems
p745
I2
sVreligion
p746
I20
sVclinical_psychology
p747
I24
sVmusic
p748
I4
sVmathematics
p749
I3
sVartificial_intelligence
p750
I6
sVcomputer_science
p751
I6
sVnutrition
p752
I10
sVmusicology
p753
I2
sg524
I8
sVpublic_administration
p754
I6
sVsocial_psychology
p755
I36
sVphilosophy
p756
I8
sVpolitical_science
p757
I8
sg287
I12
sVepidemiology
p758
I4
sVcognitive_neuroscience
p759
I4
sVneuroscience
p760
I40
sVethics
p761
I4
sg68
I4
sVsocial_science
p762
I2
sg343
I2
sVcognitive_psychology
p763
I28
sg234
I16
sVeconomics
p764
I4
sVbiological_psychology
p765
I4
sg166
I16
sVtheology
p766
I2
sVmotor_control
p767
I4
sVkinesiology
p768
I2
sVphilosophy_of_science
p769
I8
sg133
I2
sg402
I2
sVbehavioral_economics
p770
I4
sg71
I16
ssVunited_states_history
p771
g2
(g3
tp772
Rp773
g307
I2
ssVastronomy_and_astrophysics
p774
g2
(g3
tp775
Rp776
g206
I4
sg211
I4
sVcosmology
p777
I4
ssVglaciology
p778
g2
(g3
tp779
Rp780
g216
I2
sg452
I4
ssVmacroeconomics
p781
g2
(g3
tp782
Rp783
g34
I2
sg668
I4
sg35
I1
ssVmicrobial_ecology
p784
g2
(g3
tp785
Rp786
Venvironmental_microbiology
p787
I8
sVmolecular_biology
p788
I4
sVmicrobial_ecology
p789
I8
ssVmicrobiology
p790
g2
(g3
tp791
Rp792
Vbotany
p793
I8
sg425
I4
sg206
I4
sVfood_microbiology
p794
I4
sg361
I2
sg362
I2
sg715
I2
sg318
I2
sVgenetics
p795
I16
sVbiochemistry
p796
I8
sVmicrobiology
p797
I8
sVparasitology
p798
I16
sVbiomedical
p799
I16
sVcomposition
p800
I8
sVnutrition
p801
I16
sVpharmacology
p802
I10
sVenvironmental_microbiology
p803
I4
sVcell_biology
p804
I4
sg68
I8
sVmolecular_biology
p805
I12
sVimmunology
p806
I8
sVvirology
p807
I20
sVanalysis
p808
I8
sVcancer_biology
p809
I4
sVdevelopmental_biology
p810
I4
sVscience
p811
I190
sVbacteriology
p812
I20
sVtoxicology
p813
I4
sg54
I4
ssVevolutionary_ecology
p814
g2
(g3
tp815
Rp816
g795
I4
ssVancient_philosophy
p817
g2
(g3
tp818
Rp819
Vancient_philosophy
p820
I1
sVphilosophy
p821
I2
sg211
I2
ssVreligion
p822
g2
(g3
tp823
Rp824
g712
I4
sg425
I4
sg369
I12
sVphilosophy_of_religion
p825
I8
sVbehavioral_ecology
p826
I4
sg146
I16
sVsocial_science
p827
I8
sVzoology
p828
I4
sg362
I6
sVcosmology
p829
I4
sVmetaphysics
p830
I4
sg258
I2
sVsociology
p831
I8
sg428
I8
sVpsychology
p832
I4
sg269
I30
sValgebra
p833
I12
sVphysics
p834
I2
sVreligion
p835
I46
sVmusic
p836
I8
sg24
I4
sVphysical_science
p837
I4
sVhistory_of_religion
p838
I14
sVtheatre
p839
I40
sg432
I16
sVphilosophy
p840
I14
sg160
I4
sVneuroscience
p841
I12
sg25
I26
sVclimate
p842
I4
sVcognitive_psychology
p843
I6
sg234
I24
sg706
I10
sVanalysis
p844
I4
sVtheology
p845
I24
sVphilosophy_of_science
p846
I8
sg94
I12
sVos
p847
I4
sg71
I28
ssVparasitology
p848
g2
(g3
tp849
Rp850
g359
I2
sg360
I1
sg221
I2
sg34
I14
sVmicrobiology
p851
I18
sg35
I2
sg90
I2
sVmolecular_biology
p852
I4
sVmorphology
p853
I8
sg175
I4
ssVgeochemistry
p854
g2
(g3
tp855
Rp856
g452
I34
sg34
I42
sg35
I12
sVthermodynamics
p857
I4
sg456
I4
sg216
I2
sg220
I2
sVhistory
p858
I4
ssVpolymer_chemistry
p859
g2
(g3
tp860
Rp861
Vthermodynamics
p862
I4
sg9
I8
ssVbiological_engineering
p863
g2
(g3
tp864
Rp865
g851
I4
ssVstructural_biology
p866
g2
(g3
tp867
Rp868
g202
I4
sg31
I4
sg206
I4
sVmolecular_biology
p869
I4
sg440
I4
ssVnuclear_physics
p870
g2
(g3
tp871
Rp872
g211
I2
ssVphysical_chemistry
p873
g2
(g3
tp874
Rp875
Vcosmochemistry
p876
I4
sVorganic_chemistry
p877
I4
sg468
I8
sg335
I4
sVpolymer_chemistry
p878
I4
sVmaterials_chemistry
p879
I2
sg94
I8
sVtransport_phenomena
p880
I2
ssVcomparative_politics
p881
g2
(g3
tp882
Rp883
Vpublic_policy
p884
I4
sVinternational_relations
p885
I2
sg746
I8
ssVrural_sociology
p886
g2
(g3
tp887
Rp888
Veconomics
p889
I4
ssVhorticulture
p890
g2
(g3
tp891
Rp892
Vhorticulture
p893
I28
sVbotany
p894
I2
sg343
I2
sg425
I4
sg795
I1
sg221
I2
sg234
I8
sVplant_breeding
p895
I12
sVentomology
p896
I4
sg61
I2
sVagronomy
p897
I2
sVeconomics
p898
I4
sVplant_pathology
p899
I4
sVdairy_science
p900
I6
sVsoil_science
p901
I4
sg603
I12
ssVsocial_anthropology
p902
g2
(g3
tp903
Rp904
g395
I4
sg568
I4
ssVeconomic_theory
p905
g2
(g3
tp906
Rp907
Vmacroeconomics
p908
I4
sg355
I4
sg706
I20
sg166
I8
sVpolitical_science
p909
I4
sVbehavioral_economics
p910
I8
sg307
I4
ssVgenomics
p911
g2
(g3
tp912
Rp913
Vgenomics
p914
I4
sg360
I5
sg524
I1
sg234
I4
sg60
I1
sg61
I2
sg166
I20
sVepidemiology
p915
I4
sg451
I1
sVethics
p916
I2
sg68
I1
ssVscience
p917
g2
(g3
tp918
Rp919
Vchemical_engineering
p920
I22
sVbiostatistics
p921
I10
sVsyntax
p922
I8
sVfluid_dynamics
p923
I8
sg148
I8
sVglaciology
p924
I24
sVnetworks
p925
I4
sg697
I198
sVlinguistics
p926
I66
sVcomputational_biology
p927
I8
sVanalytical_chemistry
p928
I4
sVclinical_psychology
p929
I10
sVfood_science
p930
I12
sg420
I2
sg468
I10
sVmaterials_science
p931
I22
sVbiomedical
p932
I20
sVphysical_science
p933
I52
sVtribology
p934
I12
sVcontrol_theory
p935
I16
sVpharmacology
p936
I106
sVpaleontology
p937
I22
sVquantum_physics
p938
I8
sg896
I4
sVmusic_theory
p939
I6
sVhuman_geography
p940
I8
sVsoftware_engineering
p941
I4
sVengineering_science
p942
I14
sVbiomechanics
p943
I46
sVimmunology
p944
I46
sVvirology
p945
I56
sVethnic_studies
p946
I2
sVesthetics
p947
I1
sg320
I4
sVdevelopmental_biology
p948
I8
sg812
I12
sVoptics
p949
I12
sVpublic_health
p950
I14
sVbehavioral_economics
p951
I4
sg425
I116
sVpsycholinguistics
p952
I4
sVanimal_science
p953
I4
sVplant_breeding
p954
I6
sVmass_communication
p955
I4
sVplant_pathology
p956
I4
sVsocial_anthropology
p957
I6
sVancient_history
p958
I4
sVcultural_anthropology
p959
I4
sVpublic_policy
p960
I6
sVeconometrics
p961
I2
sVplant_biology
p962
I8
sVcriminology
p963
I10
sVaerospace_engineering
p964
I4
sg831
I206
sg795
I242
sg241
I350
sVmedicinal_chemistry
p965
I16
sVmicrobial_ecology
p966
I4
sg204
I66
sVevolutionary_ecology
p967
I4
sg835
I22
sVparasitology
p968
I18
sg335
I12
sVpolymer_chemistry
p969
I2
sVpublic_administration
p970
I8
sVnuclear_physics
p971
I2
sVphysical_chemistry
p972
I4
sVcomparative_politics
p973
I4
sVmacroeconomics
p974
I2
sVmolecular_genetics
p975
I8
sg512
I16
sVpolitical_science
p976
I30
sg160
I136
sg576
I40
sVenvironmental_engineering
p977
I4
sVnetworking
p978
I1
sVmanufacturing
p979
I2
sg603
I224
sg127
I6
sVmolecular_biology
p980
I70
sVcognitive_psychology
p981
I12
sVplant_science
p982
I4
sg706
I142
sg110
I30
sVstructural_engineering
p983
I6
sVmotor_control
p984
I8
sg439
I4
sVcultural_history
p985
I8
sg712
I112
sg573
I12
sg88
I28
sVrobotics
p986
I26
sVbehavioral_ecology
p987
I4
sVelectromagnetics
p988
I8
sVastrophysics_and_astronomy
p989
I6
sVarchaeological
p990
I12
sVsociolinguistics
p991
I12
sg828
I74
sVmaterials_chemistry
p992
I2
sVpharmaceutics
p993
I4
sVhorticulture
p994
I16
sg236
I20
sg332
I70
sVdevelopmental_psychology
p995
I14
sVphonetics
p996
I6
sVsocial_science
p997
I88
sVaerodynamics
p998
I30
sg836
I42
sVartificial_intelligence
p999
I18
sg149
I52
sg197
I60
sg753
I4
sVsocial_psychology
p1000
I1
sVsignal_processing
p1001
I4
sVfluid_mechanics
p1002
I10
sVgeophysics
p1003
I40
sVgraphics
p1004
I2
sVcognitive_neuroscience
p1005
I8
sVsoil_science
p1006
I2
sVsemantics
p1007
I2
sVcivil_engineering
p1008
I2
sVcell_biology
p1009
I32
sVcircuits
p1010
I2
sVscience
p1011
I124
sg421
I116
sVkinesiology
p1012
I8
sVapplied_mathematics
p1013
I10
sVphilosophy_of_science
p1014
I4
sVnumerical_analysis
p1015
I4
sg71
I182
sVexercise_physiology
p1016
I16
sVethnomusicology
p1017
I20
sVcondensed_matter_physics
p1018
I2
sVendocrinology
p1019
I4
sVphilosophy_of_religion
p1020
I4
sVmechanical_engineering
p1021
I14
sg206
I364
sVergonomics
p1022
I18
sVpolitical_history
p1023
I4
sVagronomy
p1024
I8
sg845
I56
sg514
I14
sVcomputer_engineering
p1025
I10
sVinstrumentation
p1026
I4
sVindustrial_engineering
p1027
I2
sVengineering_physics
p1028
I1
sVhumanities
p1029
I46
sg242
I204
sVinformation_systems
p1030
I4
sg432
I238
sVenvironmental_chemistry
p1031
I8
sVlife_science
p1032
I26
sVpopulation_biology
p1033
I4
sg24
I626
sVbiogeochemistry
p1034
I10
sVcomposition
p1035
I2
sVearth_science
p1036
I60
sVcomputer_science
p1037
I116
sVelectrical_engineering
p1038
I14
sVtheatre
p1039
I4
sg355
I10
sVorganic_chemistry
p1040
I12
sg756
I140
sVbiophysics
p1041
I20
sVseismology
p1042
I18
sVoperational_research
p1043
I2
sg760
I86
sg25
I10
sVstructural_biology
p1044
I10
sVcomputer_architecture
p1045
I4
sg128
I5
sg233
I4
sVenvironmental_sciences
p1046
I2
sg166
I38
sg777
I62
sg429
I16
sValgorithms
p1047
I3
sVapplied_statistics
p1048
I2
sg94
I1242
sg95
I608
ssVpolitical_science
p1049
g2
(g3
tp1050
Rp1051
Vscience
p1052
I4
sg119
I4
sVpolitical_theory
p1053
I4
sg368
I16
sVpublic_administration
p1054
I4
sg706
I10
sVanalysis
p1055
I4
sVpolitical_science
p1056
I4
sg961
I4
sVsociology
p1057
I4
sVsocial_science
p1058
I4
sVamerican_politics
p1059
I4
sVpublic_policy
p1060
I6
sVinternational_relations
p1061
I6
sg26
I4
sVcomparative_politics
p1062
I4
sg519
I6
sg71
I26
ssVanthropology
p1063
g2
(g3
tp1064
Rp1065
g359
I12
sg43
I4
sg620
I12
sg456
I4
sVcultural_anthropology
p1066
I4
sg777
I4
sVmetaphysics
p1067
I12
sg258
I4
sVethnomusicology
p1068
I6
sg926
I8
sg152
I4
sg360
I8
sVpsychology
p1069
I4
sg269
I19
sVpaleobiology
p1070
I4
sVevolutionary_ecology
p1071
I4
sg547
I2
sg117
I26
sg696
I8
sVcomposition
p1072
I6
sVcomputer_science
p1073
I6
sVsocial_anthropology
p1074
I8
sVlinguistic_anthropology
p1075
I8
sg753
I2
sg701
I4
sg756
I4
sVcontinental_philosophy
p1076
I4
sVpolitical_science
p1077
I4
sVanthropology
p1078
I4
sg90
I2
sg602
I1
sg450
I8
sVscience
p1079
I108
sg257
I12
sg707
I10
sg132
I2
sg220
I2
sg71
I22
ssVbacteriology
p1080
g2
(g3
tp1081
Rp1082
g360
I2
sg34
I6
sg61
I18
sVanalysis
p1083
I18
sg576
I16
sVpathology
p1084
I16
sVchemistry
p1085
I16
sg68
I2
ssVforest_management
p1086
g2
(g3
tp1087
Rp1088
Vscience
p1089
I8
sVforest_management
p1090
I4
ssVenvironmental_engineering
p1091
g2
(g3
tp1092
Rp1093
g20
I4
sVpublic_policy
p1094
I4
sg26
I4
sVenergy_systems
p1095
I2
sg493
I4
ssVinternational_relations
p1096
g2
(g3
tp1097
Rp1098
g395
I18
sVinternational_economics
p1099
I2
sg9
I2
sg205
I2
sVmusic
p1100
I8
sVinternational_relations
p1101
I2
sg520
I2
sg212
I2
ssVmanufacturing
p1102
g2
(g3
tp1103
Rp1104
g562
I6
sVinstrumentation
p1105
I2
sVsoftware_engineering
p1106
I16
sg561
I2
sVfood_processing
p1107
I20
sg986
I6
sVlife_science
p1108
I10
sg844
I2
sg206
I22
sVmaterials_science
p1109
I2
sVcommunication
p1110
I7
sVmanufacturing
p1111
I4
sg353
I2
sg403
I2
sVhistory
p1112
I2
ssVphysiology
p1113
g2
(g3
tp1114
Rp1115
g58
I14
sg735
I2
sVos
p1116
I2
sVcommunication
p1117
I6
sg64
I6
sg321
I4
sg361
I12
sVpathology
p1118
I4
sg258
I8
sg318
I1
sVgenetics
p1119
I4
sVpsychology
p1120
I6
sVcellular_physiology
p1121
I4
sVbiochemistry
p1122
I12
sVmicrobiology
p1123
I4
sg1019
I6
sVartificial_intelligence
p1124
I4
sVnutrition
p1125
I36
sg123
I2
sVpharmacology
p1126
I4
sg60
I2
sVbiophysics
p1127
I8
sg451
I4
sVphysiology
p1128
I8
sVmolecular_biology
p1129
I8
sVcell_biology
p1130
I4
sg453
I236
sg844
I8
sg800
I2
sg477
I2
sVdevelopmental_biology
p1131
I4
sVgrowth_and_development
p1132
I4
sg730
I2
sg731
I2
sg133
I16
sg54
I6
ssVdynamic_systems
p1133
g2
(g3
tp1134
Rp1135
Vair_traffic_control
p1136
I2
sVsignal_processing
p1137
I2
ssVclimate
p1138
g2
(g3
tp1139
Rp1140
g715
I2
sVclimate
p1141
I4
sg451
I6
sg316
I2
sg452
I4
sg234
I16
sg346
I6
sg166
I2
sg247
I8
sg150
I8
sVphysics
p1142
I2
sg167
I8
sVglaciology
p1143
I4
sg303
I4
ssVmolecular_biology
p1144
g2
(g3
tp1145
Rp1146
Vphilosophy_of_science
p1147
I4
sVmolecular_biology
p1148
I8
sVimmunology
p1149
I4
sVcell_biology
p1150
I14
sg6
I4
sg242
I4
sg1019
I4
sVplant_breeding
p1151
I4
sVmolecular_genetics
p1152
I4
sVlife_science
p1153
I14
sg166
I8
sVmicrobiology
p1154
I4
sVplant_science
p1155
I12
sVcancer_biology
p1156
I12
sVcomputational_biology
p1157
I4
sVdevelopmental_biology
p1158
I12
sVstructural_biology
p1159
I4
sVgenetics
p1160
I4
sg568
I4
sg453
I4
ssVcognitive_psychology
p1161
g2
(g3
tp1162
Rp1163
Vmotor_control
p1164
I4
sg427
I12
sVcognitive_psychology
p1165
I6
sg142
I4
sg397
I12
sg71
I4
ssValgebra
p1166
g2
(g3
tp1167
Rp1168
Vprobability
p1169
I16
sValgebra
p1170
I2
sg34
I26
sVcommunication
p1171
I2
sVanalysis
p1172
I4
sVsyntax
p1173
I4
sg456
I2
sVnumber_theory
p1174
I12
sg155
I313
sValgebraic_geometry
p1175
I4
sg133
I4
sg54
I2
sVcomposition
p1176
I4
sg307
I12
ssVplant_science
p1177
g2
(g3
tp1178
Rp1179
Vhorticulture
p1180
I8
sg110
I4
sg425
I4
sg795
I24
sVbotany
p1181
I10
sg202
I12
sg234
I4
sVplant_breeding
p1182
I24
sg9
I4
sVplant_pathology
p1183
I6
sVmolecular_biology
p1184
I12
sVbiological_engineering
p1185
I8
sg440
I8
sg533
I44
ssVhistory_of_philosophy
p1186
g2
(g3
tp1187
Rp1188
Vcomputer_science
p1189
I14
sVepistemology
p1190
I4
sVcognitive_psychology
p1191
I8
sg756
I12
sVphilosophy_of_religion
p1192
I4
sVartificial_intelligence
p1193
I6
sVancient_philosophy
p1194
I4
sVmetaphysics
p1195
I8
sVhistory
p1196
I12
ssVstructural_engineering
p1197
g2
(g3
tp1198
Rp1199
Vcivil_engineering
p1200
I4
sVsoftware_engineering
p1201
I4
sg54
I2
sg9
I4
sVstructural_engineering
p1202
I4
ssVcancer_biology
p1203
g2
(g3
tp1204
Rp1205
g235
I4
ssVtoxicology
p1206
g2
(g3
tp1207
Rp1208
g360
I1
sg936
I2
sg221
I4
sVscience
p1209
I26
sg61
I2
sg35
I4
sg68
I2
sVenvironmental_health
p1210
I4
sg897
I2
sg220
I2
sVpublic_health
p1211
I4
sg71
I4
ssVclassics
p1212
g2
(g3
tp1213
Rp1214
Vcomparative_literature
p1215
I2
sVtheatre
p1216
I2
sg452
I2
sg216
I2
sg34
I5
sg756
I6
sg457
I2
sVtheology
p1217
I2
sVancient_philosophy
p1218
I2
sg456
I2
sg92
I2
sg114
I19
sVancient_history
p1219
I14
sg36
I2
sg71
I2
sg58
I2
sg150
I2
ssVos
p1220
g2
(g3
tp1221
Rp1222
Vos
p1223
I648
sVnetworking
p1224
I1
sVmusic
p1225
I12
sVanalysis
p1226
I4
sVcommunication
p1227
I2
ssVapplied_linguistics
p1228
g2
(g3
tp1229
Rp1230
Vpsycholinguistics
p1231
I2
sVphonetics
p1232
I2
sVsecond_language_acquisition
p1233
I2
sg1173
I4
sVphonology
p1234
I4
sVlanguage_description
p1235
I2
sVmorphology
p1236
I2
sg991
I2
sVpragmatics
p1237
I2
sVsemantics
p1238
I2
ssVwood_science
p1239
g2
(g3
tp1240
Rp1241
g196
I4
ssVbotany
p1242
g2
(g3
tp1243
Rp1244
Vhorticulture
p1245
I2
sVlinguistics
p1246
I6
sg425
I18
sg360
I5
sg675
I8
sVgeology
p1247
I2
sg150
I2
sg34
I36
sVpaleontology
p1248
I4
sg604
I8
sg204
I4
sg128
I1
sVzoology
p1249
I8
sg680
I2
sVmorphology
p1250
I4
sg897
I4
sg26
I8
sVbotany
p1251
I10
sVphysiology
p1252
I14
sg601
I2
sg303
I4
ssVperformance_studies
p1253
g2
(g3
tp1254
Rp1255
Vethnomusicology
p1256
I2
sg926
I2
sVmusicology
p1257
I2
sVtheatre
p1258
I2
sg234
I2
sg160
I2
sg836
I2
sVcomposition
p1259
I2
ssVcommunication
p1260
g2
(g3
tp1261
Rp1262
g425
I8
sVos
p1263
I4
sVprobability
p1264
I12
sVcomparative_literature
p1265
I4
sVcommunication
p1266
I26
sVmass_communication
p1267
I22
sVbehavioral_ecology
p1268
I4
sg144
I8
sg564
I6
sVengineering
p1269
I8
sVergonomics
p1270
I8
sVsecond_language_acquisition
p1271
I4
sVfirst_language_acquisition
p1272
I4
sg1236
I4
sVpublic_policy
p1273
I8
sVpathology
p1274
I8
sg605
I2
sVnetworks
p1275
I4
sVhorticulture
p1276
I4
sg926
I6
sg152
I6
sVnetworking
p1277
I4
sVpsychology
p1278
I18
sg114
I4
sVdevelopmental_psychology
p1279
I4
sVphonology
p1280
I20
sVphonetics
p1281
I2
sVlife_science
p1282
I6
sVpragmatics
p1283
I2
sVreligion
p1284
I68
sVgenetics
p1285
I4
sg836
I36
sg561
I2
sVsignal_processing
p1286
I14
sVmathematics
p1287
I2
sVartificial_intelligence
p1288
I4
sVphysical_chemistry
p1289
I12
sVcomputer_science
p1290
I14
sg540
I4
sVair_traffic_control
p1291
I4
sg1258
I20
sg1190
I8
sVphilosophy
p1292
I4
sVpublic_affairs
p1293
I10
sg339
I4
sVmicrobiology
p1294
I4
sVgraphics
p1295
I16
sg760
I8
sVethics
p1296
I2
sVmanufacturing
p1297
I43
sVphysiology
p1298
I6
sg48
I8
sVinstrumentation
p1299
I4
sg133
I34
sVcircuits
p1300
I2
sg27
I4
sg706
I3
sg166
I4
sVcomposition
p1301
I20
sVmotor_control
p1302
I4
sVbiochemistry
p1303
I4
sVscience
p1304
I8
sVorganizational_communication
p1305
I4
sg949
I4
sVhistory
p1306
I20
ssVrobotics
p1307
g2
(g3
tp1308
Rp1309
g84
I2
sg34
I4
sg35
I4
sg456
I4
sg36
I2
sVmanufacturing
p1310
I6
ssVelectromagnetics
p1311
g2
(g3
tp1312
Rp1313
g43
I1
sg456
I2
sVoptics
p1314
I2
sg457
I2
sg34
I6
ssVcomputational_linguistics
p1315
g2
(g3
tp1316
Rp1317
Vlinguistics
p1318
I4
sg162
I2
sg163
I4
sg62
I4
ssVneuroscience
p1319
g2
(g3
tp1320
Rp1321
Vendocrinology
p1322
I4
sg43
I8
sVengineering
p1323
I12
sVdevelopmental_neuroscience
p1324
I4
sg639
I4
sg524
I2
sg360
I6
sg241
I4
sVbiochemistry
p1325
I4
sVmicrobiology
p1326
I4
sVpopulation_biology
p1327
I4
sg36
I2
sVartificial_intelligence
p1328
I4
sVcomputational_neuroscience
p1329
I8
sVepidemiology
p1330
I12
sVcognitive_psychology
p1331
I4
sVcognitive_neuroscience
p1332
I4
sVneuroscience
p1333
I4
sg25
I2
sg603
I8
sVmolecular_biology
p1334
I10
sVimmunology
p1335
I4
sg345
I66
sg35
I2
sVbiomaterials
p1336
I4
sg94
I6
sg457
I4
ssVzoology
p1337
g2
(g3
tp1338
Rp1339
g425
I4
sVendocrinology
p1340
I4
sg620
I12
sg222
I8
sg361
I6
sg680
I2
sg795
I8
sg221
I10
sg493
I4
sVparasitology
p1341
I4
sg36
I1
sg525
I4
sVnutrition
p1342
I4
sVpaleontology
p1343
I8
sg896
I10
sg603
I8
sVmolecular_biology
p1344
I4
sg729
I4
sg604
I8
sg9
I8
sg457
I2
sg71
I6
ssVphotonics
p1345
g2
(g3
tp1346
Rp1347
g43
I2
sg456
I4
sg1310
I2
sg949
I12
ssVpublic_economics
p1348
g2
(g3
tp1349
Rp1350
g706
I4
ssVmaterials_chemistry
p1351
g2
(g3
tp1352
Rp1353
g440
I2
ssVpharmaceutics
p1354
g2
(g3
tp1355
Rp1356
g524
I1
ssVethnomusicology
p1357
g2
(g3
tp1358
Rp1359
g89
I6
sVeconomics
p1360
I4
sVmusic
p1361
I46
sg753
I8
ssVepistemology
p1362
g2
(g3
tp1363
Rp1364
Vepistemology
p1365
I22
sVsociology
p1366
I4
sg1069
I4
sVscience
p1367
I8
sg519
I220
sg131
I4
sg708
I2
sVanthropology
p1368
I8
sg247
I8
sVphilosophy_of_language
p1369
I4
sg668
I3
sVphilosophy_of_science
p1370
I8
sVethics
p1371
I2
sVmetaphysics
p1372
I4
sVsemantics
p1373
I4
ssVnetworking
p1374
g2
(g3
tp1375
Rp1376
Vcomputer_science
p1377
I3
sVnetworking
p1378
I1
sVos
p1379
I1
sg88
I25
sVanalysis
p1380
I2
sg206
I1
sVmusic
p1381
I6
sVscience
p1382
I1
sVmanufacturing
p1383
I4
sVoptics
p1384
I3
sVnetworks
p1385
I10
sVhistory
p1386
I2
ssVdevelopmental_psychology
p1387
g2
(g3
tp1388
Rp1389
g199
I8
ssVstatistical_theory
p1390
g2
(g3
tp1391
Rp1392
g166
I4
ssVphonetics
p1393
g2
(g3
tp1394
Rp1395
g41
I51
sg43
I2
sg166
I4
sVphonology
p1396
I4
sg456
I2
sg45
I2
sg362
I1
ssVcondensed_matter_physics
p1397
g2
(g3
tp1398
Rp1399
Vbiophysics
p1400
I2
sg95
I2
sVcondensed_matter_physics
p1401
I1
ssVphysics
p1402
g2
(g3
tp1403
Rp1404
Vpolymer_chemistry
p1405
I3
sg793
I4
sVeconomics
p1406
I3
sVchemical_engineering
p1407
I7
sVprobability
p1408
I14
sVcondensed_matter_physics
p1409
I4
sg88
I4
sVrobotics
p1410
I2
sg128
I1
sVelectromagnetics
p1411
I4
sVengineering
p1412
I6
sVfluid_dynamics
p1413
I6
sVecology
p1414
I4
sg525
I1
sVsocial_science
p1415
I7
sg64
I2
sValgebraic_geometry
p1416
I4
sVtheology
p1417
I6
sg547
I1
sg269
I1
sVphysics
p1418
I14
sVinstrumentation
p1419
I4
sg693
I2
sg332
I6
sg241
I2
sg468
I16
sg796
I4
sVastronomy_and_astrophysics
p1420
I2
sVpartial_differential_equations
p1421
I2
sVlife_science
p1422
I27
sVmetaphysics
p1423
I2
sg236
I2
sg694
I2
sg321
I4
sVmusic
p1424
I10
sg52
I6
sg24
I14
sVnuclear_physics
p1425
I4
sVphysical_science
p1426
I3
sg167
I6
sVphysical_chemistry
p1427
I3
sVcomputer_science
p1428
I4
sg519
I42
sVelectrical_engineering
p1429
I2
sVeconomic_theory
p1430
I2
sg432
I10
sVorganic_chemistry
p1431
I2
sVquantum_physics
p1432
I4
sVsignal_processing
p1433
I4
sVartificial_intelligence
p1434
I2
sg1041
I2
sVmolecular_biology
p1435
I1
sg1003
I2
sVseismology
p1436
I4
sg192
I2
sg360
I2
sVmaterials_chemistry
p1437
I2
sVpolitical_science
p1438
I2
sg1128
I6
sVmaterials_science
p1439
I2
sg450
I2
sVfluid_mechanics
p1440
I2
sg833
I2
sg233
I2
sg1304
I8
sg421
I2
sVdynamical_systems
p1441
I2
sg166
I6
sg777
I4
sg1010
I1
sVapplied_mathematics
p1442
I2
sVphilosophy_of_science
p1443
I2
sg94
I10
sg949
I26
sg71
I2
ssVpragmatics
p1444
g2
(g3
tp1445
Rp1446
g41
I16
sVsemantics
p1447
I10
sg45
I2
ssVdynamical_systems
p1448
g2
(g3
tp1449
Rp1450
Vpartial_differential_equations
p1451
I6
sVanalysis
p1452
I20
sVordinary_differential_equations
p1453
I6
sVdynamical_systems
p1454
I1
sg979
I2
sVnetworks
p1455
I2
ssVamerican_popular_culture
p1456
g2
(g3
tp1457
Rp1458
g696
I14
ssVsocial_science
p1459
g2
(g3
tp1460
Rp1461
g894
I8
sVecology
p1462
I10
sVcomputer_science
p1463
I4
sVancient_history
p1464
I2
sVcultural_history
p1465
I4
sVcommunication
p1466
I16
sVplant_breeding
p1467
I2
sVsocial_history
p1468
I4
sVengineering
p1469
I2
sVpolitical_theory
p1470
I10
sVpaleontology
p1471
I2
sVsocial_anthropology
p1472
I14
sVsocial_science
p1473
I28
sVcultural_anthropology
p1474
I44
sVpublic_policy
p1475
I6
sVagronomy
p1476
I6
sVgeography
p1477
I84
sVethnomusicology
p1478
I8
sVlinguistics
p1479
I28
sVsociology
p1480
I314
sVoceanography
p1481
I2
sVpsychology
p1482
I196
sVhumanities
p1483
I12
sVdevelopmental_psychology
p1484
I16
sValgebra
p1485
I2
sVlife_science
p1486
I6
sVfood_science
p1487
I6
sg1284
I4
sVneuroscience
p1488
I24
sVgenetics
p1489
I12
sg696
I6
sVmathematics
p1490
I4
sVcriminology
p1491
I18
sVphysical_science
p1492
I10
sVartificial_intelligence
p1493
I4
sVearth_science
p1494
I6
sVmacroeconomics
p1495
I4
sVrural_sociology
p1496
I2
sg315
I2
sVcontrol_theory
p1497
I4
sVeconomic_theory
p1498
I6
sg432
I2
sVpublic_administration
p1499
I20
sVsocial_psychology
p1500
I12
sVphilosophy
p1501
I64
sVeuropean_history
p1502
I2
sVpolitical_science
p1503
I136
sVanthropology
p1504
I172
sVepidemiology
p1505
I10
sVmolecular_biology
p1506
I4
sVhuman_geography
p1507
I12
sVinternational_relations
p1508
I2
sVsoftware_engineering
p1509
I4
sVphysiology
p1510
I2
sVeconomic_history
p1511
I2
sg421
I4
sVclimate
p1512
I6
sVurban_studies
p1513
I8
sVscience
p1514
I16
sVenglish_language_and_literature
p1515
I2
sVeconomics
p1516
I270
sVanalysis
p1517
I2
sVtheology
p1518
I2
sg20
I4
sVhealth_communication
p1519
I6
sVmolecular_genetics
p1520
I2
sVphilosophy_of_science
p1521
I28
sVchemistry
p1522
I28
sVphysics
p1523
I12
sVpublic_health
p1524
I2
sVhistory
p1525
I166
ssVeconomic_history
p1526
g2
(g3
tp1527
Rp1528
g153
I4
sVtheatre
p1529
I6
sg222
I4
sVmetallurgy
p1530
I4
sVeconomic_history
p1531
I12
sg643
I36
ssVaerodynamics
p1532
g2
(g3
tp1533
Rp1534
Vaerodynamics
p1535
I8
sg565
I4
ssVmusic
p1536
g2
(g3
tp1537
Rp1538
Veconomics
p1539
I4
sVos
p1540
I2
sg259
I6
sg206
I20
sVsocial_science
p1541
I4
sVastrodynamics
p1542
I4
sVnetworks
p1543
I1
sg258
I18
sg1478
I8
sVinstrumentation
p1544
I12
sg1057
I10
sVnetworking
p1545
I6
sVpsychology
p1546
I16
sg114
I33
sVmetaphysics
p1547
I4
sVreligion
p1548
I8
sVmusic
p1549
I98
sVmathematics
p1550
I4
sg1259
I194
sg315
I12
sg753
I4
sg1258
I48
sg122
I8
sg756
I12
sVanthropology
p1551
I16
sVprogramming_languages
p1552
I2
sg560
I3
sVplaywriting
p1553
I8
sg25
I2
sg293
I4
sg70
I4
sg26
I8
sg1304
I8
sVmusic_theory
p1554
I20
sg166
I28
sg766
I12
sVclassics
p1555
I16
sg402
I10
sg71
I116
ssVartificial_intelligence
p1556
g2
(g3
tp1557
Rp1558
Vcomputer_science
p1559
I4
sg119
I4
sg1264
I4
sVinformation_systems
p1560
I2
sg986
I6
sg9
I8
sVfluid_dynamics
p1561
I6
sg603
I4
sg568
I4
ssVpathology
p1562
g2
(g3
tp1563
Rp1564
g359
I2
sVcommunication
p1565
I20
sVzoology
p1566
I8
sVpathology
p1567
I2
sg1285
I4
sg153
I4
sg1281
I1
sg1123
I2
sg1548
I2
sVparasitology
p1568
I8
sVcomposition
p1569
I2
sg315
I12
sVentomology
p1570
I2
sg25
I2
sg1298
I6
sVmolecular_biology
p1571
I4
sg806
I2
sVscience
p1572
I68
sVanalysis
p1573
I4
sVbacteriology
p1574
I8
sVtoxicology
p1575
I36
sg344
I12
sVos
p1576
I3
sVhistory
p1577
I6
ssVnutrition
p1578
g2
(g3
tp1579
Rp1580
Vnutrition
p1581
I4
sg1414
I8
sg1160
I20
sg221
I8
sg234
I4
sVeconomics
p1582
I6
sVcommunity_nutrition
p1583
I10
sg311
I8
sVpublic_health
p1584
I4
sVendocrinology
p1585
I2
sVepidemiology
p1586
I6
sg68
I8
sg628
I12
sg88
I2
sg64
I4
sg897
I2
sVfood_science
p1587
I8
sg1259
I8
sg456
I2
sg71
I2
ssVlabor_economics
p1588
g2
(g3
tp1589
Rp1590
g166
I4
ssVmusicology
p1591
g2
(g3
tp1592
Rp1593
g1068
I8
sg316
I4
sg114
I2
sg34
I4
sVmusic_theory
p1594
I12
sg9
I4
sg89
I2
sVmusic
p1595
I8
sVhistory
p1596
I4
ssVsocial_psychology
p1597
g2
(g3
tp1598
Rp1599
g152
I6
sg199
I12
sVdevelopmental_psychology
p1600
I4
sg369
I4
sVsocial_psychology
p1601
I4
sVpublic_policy
p1602
I6
sg307
I4
ssVmechanical_engineering
p1603
g2
(g3
tp1604
Rp1605
Vbiomechanics
p1606
I4
sVchemical_engineering
p1607
I4
sg222
I4
sg9
I4
sg862
I4
sVengineering
p1608
I8
sg979
I2
ssVhuman_nutrition
p1609
g2
(g3
tp1610
Rp1611
Vnutrition
p1612
I8
ssVphilosophy_of_religion
p1613
g2
(g3
tp1614
Rp1615
Vscience
p1616
I4
sVreligion
p1617
I4
sg587
I4
sg519
I6
sVtheology
p1618
I8
ssVfluid_mechanics
p1619
g2
(g3
tp1620
Rp1621
g211
I2
sg206
I2
sVfluid_dynamics
p1622
I4
sg949
I2
sg71
I2
ssVgeophysics
p1623
g2
(g3
tp1624
Rp1625
g434
I4
sg452
I8
sg95
I15
sg438
I4
sVanalysis
p1626
I18
sVvulcanology
p1627
I2
sVengineering
p1628
I1
sg223
I2
sVgeophysics
p1629
I4
sg1436
I12
sg34
I41
sg128
I2
sVglaciology
p1630
I2
ssVfrench_linguistics
p1631
g2
(g3
tp1632
Rp1633
g63
I4
ssVgraphics
p1634
g2
(g3
tp1635
Rp1636
Vprobability
p1637
I2
sg114
I1
sVos
p1638
I2
sg192
I88
sg131
I2
sg92
I3
sg43
I3
sg220
I1
sg1314
I1
sVnetworks
p1639
I2
sVsemantics
p1640
I1
ssVcognitive_neuroscience
p1641
g2
(g3
tp1642
Rp1643
g760
I4
sVartificial_intelligence
p1644
I4
sVanalysis
p1645
I6
ssVsoil_science
p1646
g2
(g3
tp1647
Rp1648
Vmorphology
p1649
I10
sg1612
I8
ssVsemantics
p1650
g2
(g3
tp1651
Rp1652
Vlinguistics
p1653
I4
sg45
I2
sg199
I4
sVscience
p1654
I8
sg123
I4
sVanalysis
p1655
I8
sVsyntax
p1656
I12
sg63
I8
sVreligion
p1657
I20
sg560
I1
sVcomputational_linguistics
p1658
I14
sg59
I4
sg36
I1
sVsemantics
p1659
I4
ssVcivil_engineering
p1660
g2
(g3
tp1661
Rp1662
Vcivil_engineering
p1663
I4
sVgeotechnical_engineering
p1664
I20
sVfluid_mechanics
p1665
I4
sVchemical_engineering
p1666
I4
sVgeology
p1667
I16
sg9
I4
sVstructural_engineering
p1668
I32
sg206
I100
sVenvironmental_engineering
p1669
I16
sVmechanical_engineering
p1670
I4
sg47
I4
sVelectrical_engineering
p1671
I4
sVmechanics_of_materials
p1672
I2
ssVcell_biology
p1673
g2
(g3
tp1674
Rp1675
g31
I4
sVmolecular_biology
p1676
I4
sg32
I4
sg242
I4
sg9
I4
sg1414
I4
sVdevelopmental_biology
p1677
I4
ssVmetallurgy
p1678
g2
(g3
tp1679
Rp1680
g1530
I4
sg34
I14
sg456
I8
sg35
I2
ssVcircuits
p1681
g2
(g3
tp1682
Rp1683
Vcircuits
p1684
I1
sg43
I1
sg457
I1
sg166
I1
sg1258
I2
ssVneurolinguistics
p1685
g2
(g3
tp1686
Rp1687
g41
I3
ssVmusic_theory
p1688
g2
(g3
tp1689
Rp1690
Vmusic_theory
p1691
I4
sg1225
I10
sg166
I4
sVhistory
p1692
I4
ssVordinary_differential_equations
p1693
g2
(g3
tp1694
Rp1695
Vordinary_differential_equations
p1696
I12
sVdynamical_systems
p1697
I12
ssVkinesiology
p1698
g2
(g3
tp1699
Rp1700
g316
I2
sg34
I20
sg159
I8
sVkinesiology
p1701
I12
sg525
I3
sg68
I2
ssVapplied_mathematics
p1702
g2
(g3
tp1703
Rp1704
Vcontrol_theory
p1705
I2
sVprobability
p1706
I4
sg122
I2
sg1629
I2
sg196
I2
sVpartial_differential_equations
p1707
I2
sVdynamical_systems
p1708
I4
sg235
I6
sg146
I2
sVfluid_dynamics
p1709
I2
sg1047
I2
sVnumber_theory
p1710
I2
sVphysics
p1711
I2
sVnumerical_analysis
p1712
I18
ssVphilosophy_of_science
p1713
g2
(g3
tp1714
Rp1715
g1190
I4
sg395
I8
sg199
I8
sg573
I4
sg119
I4
sVscience
p1716
I4
sg756
I20
sg777
I4
sVartificial_intelligence
p1717
I8
sg211
I4
sg1067
I4
sg71
I8
ssVphilosophy_of_mind
p1718
g2
(g3
tp1719
Rp1720
g199
I4
sg756
I10
sg1067
I4
sg1238
I4
sVphilosophy_of_religion
p1721
I4
ssVnumerical_analysis
p1722
g2
(g3
tp1723
Rp1724
Vpartial_differential_equations
p1725
I2
sg166
I12
sg573
I4
ssVlogic_and_foundations
p1726
g2
(g3
tp1727
Rp1728
Vset_theory
p1729
I4
ssVhistory
p1730
g2
(g3
tp1731
Rp1732
g894
I6
sVhistory_of_philosophy
p1733
I10
sVethnomusicology
p1734
I4
sg1264
I16
sVhistory_of_religion
p1735
I22
sVcommunication
p1736
I12
sVhorticulture
p1737
I2
sg1656
I12
sVasian_history
p1738
I8
sVzoology
p1739
I38
sVengineering
p1740
I4
sVecology
p1741
I4
sVarchaeological
p1742
I14
sVancient_history
p1743
I8
sVsocial_science
p1744
I10
sVmorphology
p1745
I2
sVpolitical_history
p1746
I20
sVpathology
p1747
I6
sVcosmology
p1748
I2
sg524
I2
sg1067
I20
sg697
I28
sVinstrumentation
p1749
I11
sVepistemology
p1750
I16
sVsociology
p1751
I4
sg267
I11
sVpsychology
p1752
I30
sVdiplomatic_history
p1753
I4
sVhumanities
p1754
I159
sg1325
I4
sVinternational_relations
p1755
I2
sVgeology
p1756
I4
sVmilitary_history
p1757
I28
sVafrican_history
p1758
I4
sg547
I2
sVmedieval_history
p1759
I28
sg694
I158
sVsocial_history
p1760
I34
sVintellectual_history
p1761
I22
sg836
I44
sg163
I24
sg749
I3
sVcriminology
p1762
I4
sVphysical_science
p1763
I6
sg1301
I4
sVearth_science
p1764
I2
sVstructural_engineering
p1765
I2
sg540
I2
sg1570
I2
sVmusicology
p1766
I8
sg1039
I52
sVpaleontology
p1767
I2
sg151
I4
sVunited_states_history
p1768
I2
sVphilosophy
p1769
I4
sVeuropean_history
p1770
I30
sVpolitical_science
p1771
I22
sVanthropology
p1772
I10
sg90
I4
sVesthetics
p1773
I1
sVhuman_geography
p1774
I4
sVnetworking
p1775
I4
sVethics
p1776
I4
sVmanufacturing
p1777
I2
sVphysiology
p1778
I4
sVeconomic_history
p1779
I8
sg127
I4
sVclassics
p1780
I4
sg223
I4
sg122
I8
sg234
I12
sg1406
I8
sVanalysis
p1781
I8
sVtheology
p1782
I12
sVhistory
p1783
I102
sVgender_history
p1784
I4
sVphilosophy_of_science
p1785
I4
sg94
I4
sVphysics
p1786
I4
sVpublic_health
p1787
I10
sVcultural_history
p1788
I28
ssVexercise_physiology
p1789
g2
(g3
tp1790
Rp1791
g1612
I36
ssVpolitical_theory
p1792
g2
(g3
tp1793
Rp1794
Vscience
p1795
I4
sg334
I8
sg756
I12
sg166
I4
sg222
I4
ssVocean_engineering
p1796
g2
(g3
tp1797
Rp1798
g1419
I8
sVmechanical_engineering
p1799
I4
ssVendocrinology
p1800
g2
(g3
tp1801
Rp1802
Vnutrition
p1803
I2
sg34
I10
sg35
I4
sg1340
I4
sg321
I4
sg68
I8
ssVmedieval_history
p1804
g2
(g3
tp1805
Rp1806
g568
I8
ssVsystems_engineering
p1807
g2
(g3
tp1808
Rp1809
g426
I2
ssVimmunopathology
p1810
g2
(g3
tp1811
Rp1812
Vimmunology
p1813
I2
ssVengineering
p1814
g2
(g3
tp1815
Rp1816
Vchemical_engineering
p1817
I48
sVfluid_dynamics
p1818
I2
sVnetworks
p1819
I5
sVgeography
p1820
I20
sVgeotechnical_engineering
p1821
I2
sVcomputational_biology
p1822
I6
sVdigital_communications
p1823
I2
sVfood_science
p1824
I4
sVmetallurgy
p1825
I4
sg275
I4
sVmaterials_science
p1826
I10
sVbiomedical
p1827
I4
sVphysical_science
p1828
I10
sVcontrol_theory
p1829
I8
sg936
I4
sg432
I16
sVsoftware_engineering
p1830
I12
sg725
I4
sg237
I1
sVenvironmental_health
p1831
I4
sVoptics
p1832
I4
sVpublic_health
p1833
I4
sg425
I16
sVaerodynamics
p1834
I24
sVaerospace_engineering
p1835
I12
sg152
I6
sg360
I4
sg241
I8
sg851
I2
sVreligion
p1836
I12
sg223
I4
sVbiological_engineering
p1837
I4
sVnuclear_physics
p1838
I2
sVphysical_chemistry
p1839
I4
sVpolitical_science
p1840
I4
sVanthropology
p1841
I4
sg758
I8
sVenvironmental_engineering
p1842
I10
sVnetworking
p1843
I2
sg979
I2
sVfluid_mechanics
p1844
I4
sVcognitive_psychology
p1845
I4
sg706
I24
sVstructural_engineering
p1846
I4
sVtoxicology
p1847
I8
sg128
I2
sg88
I48
sg986
I4
sVenergy_systems
p1848
I2
sVelectrical_and_electronics
p1849
I8
sVelectromagnetics
p1850
I2
sg332
I28
sg1281
I2
sVsocial_science
p1851
I28
sVsignal_processing
p1852
I4
sVmusic
p1853
I4
sVartificial_intelligence
p1854
I8
sg1342
I2
sVmechanical_engineering
p1855
I52
sVmolecular_biology
p1856
I4
sVgeophysics
p1857
I4
sVcivil_engineering
p1858
I96
sVcell_biology
p1859
I4
sVcircuits
p1860
I2
sg234
I16
sg604
I2
sVaquatic_ecology
p1861
I4
sg768
I8
sVapplied_mathematics
p1862
I2
sVhistory
p1863
I4
sVcondensed_matter_physics
p1864
I2
sVsystems_engineering
p1865
I10
sVengineering
p1866
I32
sVergonomics
p1867
I12
sVpolymer_science
p1868
I4
sVtheatre
p1869
I18
sVpathology
p1870
I4
sVpetroleum_engineering
p1871
I4
sVcomputer_engineering
p1872
I16
sg1419
I8
sVindustrial_engineering
p1873
I8
sVengineering_physics
p1874
I2
sVhumanities
p1875
I12
sVbiochemistry
p1876
I8
sVinformation_systems
p1877
I2
sVlife_science
p1878
I26
sg24
I36
sVcomposition
p1879
I4
sVearth_science
p1880
I8
sVcomputer_science
p1881
I22
sVelectrical_engineering
p1882
I60
sVcomputational_neuroscience
p1883
I4
sValgebra
p1884
I4
sg159
I8
sg341
I6
sg841
I16
sg25
I5
sVcomputer_architecture
p1885
I12
sg561
I8
sg166
I32
sg1047
I2
sg94
I44
sg95
I24
ssVergonomics
p1886
g2
(g3
tp1887
Rp1888
g1105
I4
sg572
I8
sg199
I4
sg34
I3
sg339
I8
sg456
I4
sg979
I2
sg533
I4
ssVanalysis
p1889
g2
(g3
tp1890
Rp1891
g391
I1
sg922
I4
sg853
I12
sValgebraic_geometry
p1892
I4
sVnetworks
p1893
I2
sVgeography
p1894
I4
sg741
I4
sVanalytical_chemistry
p1895
I4
sVmetallurgy
p1896
I2
sg181
I1
sVbiomedical
p1897
I4
sVcontrol_theory
p1898
I4
sVpharmacology
p1899
I4
sVgeology
p1900
I2
sVnumber_theory
p1901
I8
sVbiometry
p1902
I4
sVimmunology
p1903
I10
sVvirology
p1904
I4
sg63
I4
sVbacteriology
p1905
I4
sVoptics
p1906
I3
sVpublic_health
p1907
I8
sVecology
p1908
I8
sVaerodynamics
p1909
I16
sVpublic_policy
p1910
I18
sVeconometrics
p1911
I8
sVcriminology
p1912
I4
sg572
I6
sVgenetics
p1913
I6
sg241
I14
sVpartial_differential_equations
p1914
I6
sg851
I4
sVreligion
p1915
I8
sg549
I2
sg223
I4
sVsociology_of_culture
p1916
I4
sVrace_and_ethnicity
p1917
I4
sVpolitical_science
p1918
I6
sg339
I4
sVepidemiology
p1919
I4
sVinternational_relations
p1920
I2
sVmanufacturing
p1921
I2
sg1128
I6
sg450
I12
sVmolecular_biology
p1922
I12
sg706
I16
sVtoxicology
p1923
I10
sVclassics
p1924
I2
sVos
p1925
I32
sg573
I4
sg88
I4
sVrobotics
p1926
I4
sVenergy_systems
p1927
I2
sg45
I1
sVmacroeconomics
p1928
I1
sVgenomics
p1929
I10
sg451
I2
sVphonetics
p1930
I12
sg836
I8
sVmechanical_engineering
p1931
I4
sVsocial_science
p1932
I4
sVartificial_intelligence
p1933
I8
sg197
I4
sVsignal_processing
p1934
I8
sVsemantics
p1935
I4
sVcell_biology
p1936
I6
sg1300
I1
sg234
I6
sVordinary_differential_equations
p1937
I2
sVnumerical_analysis
p1938
I10
sVhistory
p1939
I28
sVendocrinology
p1940
I4
sVengineering
p1941
I4
sg400
I4
sVtheology
p1942
I4
sg1419
I12
sVhumanities
p1943
I1
sVbiochemistry
p1944
I10
sVinformation_systems
p1945
I68
sVmathematics
p1946
I150
sg495
I4
sVcomposition
p1947
I8
sVcomputer_science
p1948
I4
sg1039
I2
sg355
I16
sg519
I8
sVneuroscience
p1949
I2
sg25
I2
sVanalysis
p1950
I16
sVcosmology
p1951
I6
sg485
I2
sVset_theory
p1952
I4
sg94
I10
sg54
I2
ssVstatistical_methodology
p1953
g2
(g3
tp1954
Rp1955
Valgorithms
p1956
I1
sg9
I8
ssVeconomics
p1957
g2
(g3
tp1958
Rp1959
g329
I12
sVecology
p1960
I4
sVprobability
p1961
I4
sg43
I3
sVengineering
p1962
I4
sVpublic_policy
p1963
I14
sVpublic_economics
p1964
I8
sg1911
I32
sg416
I12
sg908
I32
sVepistemology
p1965
I4
sg831
I4
sg241
I8
sg114
I24
sVinformation_systems
p1966
I2
sg1455
I2
sVreligion
p1967
I4
sg628
I18
sVeconomic_history
p1968
I8
sVsocial_science
p1969
I2
sVcomputer_science
p1970
I4
sg197
I6
sVlabor_economics
p1971
I4
sVcontrol_theory
p1972
I4
sVeconomic_theory
p1973
I22
sVsocial_psychology
p1974
I4
sg756
I8
sVpolitical_science
p1975
I4
sg339
I4
sVforest_management
p1976
I4
sg749
I4
sg1777
I4
sVindustrial_organization
p1977
I16
sVclimate
p1978
I74
sVscience
p1979
I16
sVeconomics
p1980
I8
sVinternational_economics
p1981
I4
sg166
I36
sg708
I1
sg26
I16
sg27
I3
sVbehavioral_economics
p1982
I10
sg71
I12
ssVpolitical_history
p1983
g2
(g3
tp1984
Rp1985
g756
I4
sg71
I24
ssVagronomy
p1986
g2
(g3
tp1987
Rp1988
g1737
I4
sg1342
I2
sg58
I4
sg93
I6
sg426
I8
sg731
I2
sVenvironmental_sciences
p1989
I2
ssVtheology
p1990
g2
(g3
tp1991
Rp1992
Vecology
p1993
I14
sVphilosophy_of_religion
p1994
I4
sVbiblical_studies
p1995
I4
sVtheology
p1996
I16
sg830
I3
sVepistemology
p1997
I2
sVsociology
p1998
I8
sg268
I4
sg114
I5
sg1284
I34
sg968
I4
sVmusic
p1999
I12
sVcomputer_science
p2000
I4
sVhistory_of_religion
p2001
I4
sVtheatre
p2002
I4
sVphilosophy
p2003
I4
sg339
I2
sg602
I4
sg234
I32
sg130
I1
sVcosmology
p2004
I4
sVphilosophy_of_science
p2005
I4
sg54
I4
sg71
I16
ssVastrodynamics
p2006
g2
(g3
tp2007
Rp2008
g92
I2
ssVcomputer_engineering
p2009
g2
(g3
tp2010
Rp2011
Vcomputer_architecture
p2012
I10
sVsoftware_engineering
p2013
I4
sg1775
I2
sg88
I4
sVengineering_physics
p2014
I2
sVphysics
p2015
I2
sVsystems_engineering
p2016
I2
sVsignal_processing
p2017
I6
sg47
I4
sVcomputer_engineering
p2018
I10
sVelectrical_engineering
p2019
I64
sVartificial_intelligence
p2020
I4
sVcompilers
p2021
I2
ssVinstrumentation
p2022
g2
(g3
tp2023
Rp2024
g1180
I4
sg197
I16
sg346
I4
sVinstrumentation
p2025
I4
sVphotonics
p2026
I8
sVscience
p2027
I16
sg1926
I2
sg547
I4
sg54
I8
sg166
I4
sg1301
I4
sVsignal_processing
p2028
I12
sg221
I4
sg1740
I8
sg1424
I6
sg626
I4
sg94
I10
sg949
I8
sg603
I8
sVhistory
p2029
I14
ssVindustrial_engineering
p2030
g2
(g3
tp2031
Rp2032
g146
I4
sVcomputer_engineering
p2033
I4
sg7
I4
sVmechanical_engineering
p2034
I4
ssVhumanities
p2035
g2
(g3
tp2036
Rp2037
g425
I4
sg88
I18
sVmass_communication
p2038
I4
sVengineering
p2039
I16
sVpolitical_theory
p2040
I4
sVenglish_language_and_literature
p2041
I4
sVinternational_relations
p2042
I10
sVcultural_anthropology
p2043
I4
sVmetaphysics
p2044
I12
sVgeography
p2045
I88
sg926
I32
sg831
I60
sVnetworking
p2046
I2
sg241
I40
sg836
I40
sg694
I20
sVsocial_science
p2047
I8
sg24
I8
sg682
I8
sg1879
I4
sVcomputer_science
p2048
I16
sVhistory_of_religion
p2049
I4
sVsocial_anthropology
p2050
I4
sg1257
I4
sg1258
I4
sg201
I8
sg756
I120
sVpolitical_science
p2051
I40
sg160
I36
sVenvironmental_engineering
p2052
I4
sg269
I2
sg560
I1
sVneuroscience
p2053
I20
sg25
I8
sVenvironmental_sciences
p2054
I4
sg1555
I12
sg1335
I4
sVcognitive_psychology
p2055
I4
sVamerican_studies
p2056
I3
sg1367
I40
sVhuman_geography
p2057
I4
sg706
I68
sg311
I4
sg845
I20
sg94
I8
sg95
I1
sVpublic_health
p2058
I4
sg71
I268
ssVbiochemistry
p2059
g2
(g3
tp2060
Rp2061
g1117
I4
sg456
I8
sg64
I10
sg715
I2
sg84
I4
sg1160
I12
sg20
I8
sg1326
I8
sVthermodynamics
p2062
I4
sg549
I2
sVstructural_biology
p2063
I4
sVmathematics
p2064
I4
sg540
I2
sVpharmacology
p2065
I16
sVorganic_chemistry
p2066
I6
sg60
I2
sg1041
I8
sg1778
I6
sVmolecular_biology
p2067
I8
sg806
I4
sVscience
p2068
I278
sVanalysis
p2069
I4
sg320
I2
sVdevelopmental_biology
p2070
I8
sVtoxicology
p2071
I4
sg94
I16
sg457
I2
ssVeuropean_history
p2072
g2
(g3
tp2073
Rp2074
Vdiplomatic_history
p2075
I2
sVhistory
p2076
I8
ssVinformation_systems
p2077
g2
(g3
tp2078
Rp2079
Vnetworking
p2080
I6
sg234
I2
sVeconomics
p2081
I2
sg166
I12
sValgorithms
p2082
I14
sg1295
I2
sVmanufacturing
p2083
I1
sg1455
I4
ssVpaleontology
p2084
g2
(g3
tp2085
Rp2086
Vlinguistics
p2087
I4
sVecology
p2088
I4
sg452
I16
sg34
I56
sVpaleontology
p2089
I10
sVanthropology
p2090
I4
sg1236
I4
sg58
I2
sg325
I2
ssVmilitary_history
p2091
g2
(g3
tp2092
Rp2093
g307
I4
ssVlife_science
p2094
g2
(g3
tp2095
Rp2096
Vbotany
p2097
I8
sVecology
p2098
I6
sVchemical_engineering
p2099
I2
sg573
I4
sVendocrinology
p2100
I2
sg259
I2
sVlife_science
p2101
I10
sVengineering
p2102
I4
sVzoology
p2103
I10
sg739
I4
sVgeography
p2104
I2
sVhorticulture
p2105
I2
sVgenomics
p2106
I8
sVsociology
p2107
I4
sVgenetics
p2108
I10
sVpsychology
p2109
I6
sVbiochemistry
p2110
I60
sVgeology
p2111
I2
sVmicrobiology
p2112
I24
sVfood_science
p2113
I6
sg1149
I8
sVclinical_psychology
p2114
I2
sVsocial_science
p2115
I10
sVanimal_science
p2116
I6
sVmathematics
p2117
I4
sVphysical_science
p2118
I6
sVmolecular_genetics
p2119
I4
sg675
I10
sVpaleontology
p2120
I2
sVorganic_chemistry
p2121
I2
sg159
I4
sVplant_science
p2122
I4
sVneuroscience
p2123
I4
sVsoil_science
p2124
I4
sg14
I4
sg1252
I20
sg633
I4
sVmolecular_biology
p2125
I24
sVcell_biology
p2126
I8
sVstructural_biology
p2127
I4
sg1330
I6
sVscience
p2128
I54
sg222
I4
sg311
I4
sVdevelopmental_biology
p2129
I2
sVvirology
p2130
I2
sVtoxicology
p2131
I2
sVchemistry
p2132
I12
sVphysics
p2133
I2
sVpublic_health
p2134
I20
ssVmetaphysics
p2135
g2
(g3
tp2136
Rp2137
g1190
I4
sVclimate
p2138
I6
sg572
I8
sVpsychology
p2139
I4
sg129
I6
sg159
I4
sVphilosophy_of_religion
p2140
I4
sVmetaphysics
p2141
I74
sg334
I5
sg836
I2
sg605
I4
sg602
I2
sg766
I4
sVphilosophy_of_mind
p2142
I4
sg1259
I4
sg643
I20
ssVsocial_history
p2143
g2
(g3
tp2144
Rp2145
g453
I4
sg119
I4
sg205
I8
sg71
I12
ssVesthetics
p2146
g2
(g3
tp2147
Rp2148
g34
I1
sg325
I2
ssVpopulation_biology
p2149
g2
(g3
tp2150
Rp2151
Vmolecular_biology
p2152
I4
ssVmathematics
p2153
g2
(g3
tp2154
Rp2155
Vscientific_computing
p2156
I4
sVpartial_differential_equations
p2157
I12
sVchemical_engineering
p2158
I4
sg573
I50
sVcommunication
p2159
I4
sg1926
I4
sVnetworks
p2160
I4
sVoperational_research
p2161
I4
sg64
I1
sVengineering
p2162
I20
sVfluid_dynamics
p2163
I2
sVecology
p2164
I4
sVartificial_intelligence
p2165
I4
sVstatistics_and_probability
p2166
I8
sVmultidisciplinary_design_optimization
p2167
I4
sValgebraic_geometry
p2168
I84
sg514
I8
sg150
I2
sg512
I4
sg192
I2
sg1998
I8
sg451
I1
sg2109
I4
sg114
I2
sg242
I16
sVinformation_systems
p2169
I2
sg355
I256
sVmicrobiology
p2170
I6
sg37
I1
sVreligion
p2171
I4
sVdynamical_systems
p2172
I22
sVmusic
p2173
I4
sg741
I12
sVsignal_processing
p2174
I4
sVsocial_science
p2175
I16
sVgeometry_and_topology
p2176
I12
sg1879
I3
sVearth_science
p2177
I4
sVcomputer_science
p2178
I12
sVcivil_engineering
p2179
I6
sVcontrol_theory
p2180
I4
sVelectrical_engineering
p2181
I10
sVgeology
p2182
I4
sVquantum_physics
p2183
I5
sg1292
I8
sg302
I5
sVpolitical_science
p2184
I6
sg339
I8
sVaerodynamics
p2185
I4
sVcomputational_biology
p2186
I4
sVnumber_theory
p2187
I172
sVmathematics
p2188
I4
sg321
I2
sg602
I4
sVsoftware_engineering
p2189
I4
sg1640
I1
sg604
I8
sg1512
I12
sg128
I2
sVnon-linear_dynamics
p2190
I2
sg234
I8
sg391
I1
sg764
I8
sg166
I248
sVcosmology
p2191
I12
sVordinary_differential_equations
p2192
I3
sVapplied_mathematics
p2193
I6
sg1047
I4
sVphysical_science
p2194
I2
sg1629
I8
sVset_theory
p2195
I40
sg94
I20
sg95
I18
sVnumerical_analysis
p2196
I32
sVhistory
p2197
I8
ssVbiogeochemistry
p2198
g2
(g3
tp2199
Rp2200
Vclimate
p2201
I4
sg359
I4
sg451
I2
sg34
I16
sg35
I4
sg220
I4
sg403
I4
sVhistory
p2202
I4
ssVcomposition
p2203
g2
(g3
tp2204
Rp2205
g359
I2
sg1264
I8
sVcommunication
p2206
I8
sVengineering
p2207
I4
sg853
I12
sVpathology
p2208
I4
sVinstrumentation
p2209
I4
sg360
I1
sg114
I3
sg452
I8
sg457
I6
sg836
I86
sg36
I3
sVcomposition
p2210
I6
sg197
I14
sg41
I1
sg159
I14
sVanthropology
p2211
I4
sVoptics
p2212
I2
sVmanufacturing
p2213
I7
sg68
I2
sVclimate
p2214
I6
sVclassics
p2215
I2
sVscience
p2216
I2
sg222
I18
sg707
I10
sg605
I2
sVtoxicology
p2217
I4
sg133
I16
sVos
p2218
I2
sg2029
I6
ssVearth_science
p2219
g2
(g3
tp2220
Rp2221
Vcomputer_science
p2222
I2
sVclimate
p2223
I16
sg1414
I4
sVoceanography
p2224
I10
sVpaleontology
p2225
I4
sg729
I2
sVmeteorology
p2226
I10
sg27
I3
sg9
I4
sVpolitical_science
p2227
I2
sVanthropology
p2228
I2
sVengineering
p2229
I2
sVgeochemistry
p2230
I4
sVgeophysics
p2231
I4
sVseismology
p2232
I12
sVhuman_geography
p2233
I4
sg47
I2
sVgeology
p2234
I38
sVchemistry
p2235
I6
sg1630
I4
sVgeography
p2236
I8
ssVenvironmental_health
p2237
g2
(g3
tp2238
Rp2239
g425
I4
sg196
I4
sg9
I4
sg758
I4
sg426
I4
sg2071
I4
sg212
I4
ssVcomputer_science
p2240
g2
(g3
tp2241
Rp2242
Vchemical_engineering
p2243
I4
sVprobability
p2244
I2
sVcommunication
p2245
I6
sg986
I28
sVsystems_engineering
p2246
I2
sVengineering
p2247
I32
sVfluid_dynamics
p2248
I2
sVpublic_policy
p2249
I6
sVprogramming_languages
p2250
I12
sVnetworks
p2251
I6
sVcomputer_engineering
p2252
I10
sg893
I4
sg1750
I6
sVcomputational_biology
p2253
I4
sg978
I2
sVpsychology
p2254
I10
sVinformation_systems
p2255
I3
sg355
I8
sVmusic
p2256
I4
sVsignal_processing
p2257
I4
sg24
I44
sVartificial_intelligence
p2258
I58
sVcompilers
p2259
I2
sVcomputer_science
p2260
I26
sg540
I4
sVelectrical_engineering
p2261
I4
sg493
I4
sg159
I4
sg1295
I4
sVcognitive_neuroscience
p2262
I4
sVneuroscience
p2263
I4
sVsoftware_engineering
p2264
I24
sg163
I4
sVcomputer_architecture
p2265
I6
sg345
I14
sg655
I18
sg166
I12
sVphilosophy_of_language
p2266
I6
sVapplied_mathematics
p2267
I2
sg1047
I14
sVset_theory
p2268
I4
sVchemistry
p2269
I10
sg95
I2
sVnumerical_analysis
p2270
I6
sg303
I6
ssVcultural_history
p2271
g2
(g3
tp2272
Rp2273
g831
I8
sg241
I4
sg1039
I6
sg201
I4
sg196
I8
sVphilosophy
p2274
I12
sg334
I6
sg652
I4
sg1424
I8
sg71
I12
ssVelectrical_engineering
p2275
g2
(g3
tp2276
Rp2277
Velectrical_engineering
p2278
I4
sg1010
I2
sg2245
I6
sg2015
I7
sg311
I4
sg426
I12
sVsignal_processing
p2279
I4
sVmathematics
p2280
I4
sg949
I2
sVchemical_engineering
p2281
I4
sVdigital_circuits
p2282
I2
ssVtheatre
p2283
g2
(g3
tp2284
Rp2285
Vtheatre_history
p2286
I8
sVtheatre
p2287
I1414
sg114
I5
sVcommunication
p2288
I6
sg844
I24
sg334
I12
sVengineering
p2289
I4
sg836
I78
sg34
I16
sVplaywriting
p2290
I4
sVpublic_health
p2291
I4
sg71
I28
ssVapplied_mechanics
p2292
g2
(g3
tp2293
Rp2294
Vtribology
p2295
I2
sg275
I4
sg1606
I2
sVmechanics_of_materials
p2296
I2
ssVorganic_chemistry
p2297
g2
(g3
tp2298
Rp2299
Vbiochemistry
p2300
I8
sVmedicinal_chemistry
p2301
I4
sVmolecular_biology
p2302
I4
sVmicrobial_ecology
p2303
I4
sg26
I4
ssVmolecular_genetics
p2304
g2
(g3
tp2305
Rp2306
g31
I4
sg175
I4
ssVphilosophy
p2307
g2
(g3
tp2308
Rp2309
g793
I2
sg425
I22
sVprobability
p2310
I4
sVethics_and_political_philosophy
p2311
I2
sVcommunication
p2312
I4
sVphilosophy_of_religion
p2313
I16
sg922
I4
sg146
I16
sVpolitical_theory
p2314
I4
sVeconomics
p2315
I4
sVcosmology
p2316
I8
sg514
I126
sg1912
I4
sg512
I68
sVsociology
p2317
I6
sg360
I1
sg241
I40
sg269
I88
sVgeology
p2318
I8
sg68
I2
sVancient_philosophy
p2319
I1
sg694
I36
sg836
I8
sVanimal_science
p2320
I4
sVphilosophy_of_mind
p2321
I44
sVgeography
p2322
I8
sVartificial_intelligence
p2323
I8
sVcomputer_science
p2324
I4
sVnutrition
p2325
I6
sVfeminist_philosophy
p2326
I4
sVtheatre
p2327
I16
sg741
I8
sVquantum_physics
p2328
I4
sVphilosophy
p2329
I14
sVcontinental_philosophy
p2330
I4
sVpolitical_science
p2331
I8
sg160
I4
sg1314
I1
sVmathematics
p2332
I32
sg264
I8
sg25
I46
sVmanufacturing
p2333
I61
sg162
I2
sg163
I4
sVsocial_science
p2334
I12
sg346
I4
sg128
I2
sVcognitive_psychology
p2335
I4
sVenvironmental_sciences
p2336
I2
sVhistory_of_philosophy
p2337
I16
sg166
I4
sVtheology
p2338
I44
sVphilosophy_of_language
p2339
I20
sg234
I28
sVphilosophy_of_science
p2340
I56
sg26
I6
sg95
I18
sg71
I32
ssVbiophysics
p2341
g2
(g3
tp2342
Rp2343
g468
I4
sg457
I4
sg34
I9
ssVhealth_communication
p2344
g2
(g3
tp2345
Rp2346
g369
I4
ssVseismology
p2347
g2
(g3
tp2348
Rp2349
g34
I10
sg456
I4
sg216
I12
sg457
I6
sg452
I4
ssVsociolinguistics
p2350
g2
(g3
tp2351
Rp2352
g41
I41
sg1281
I2
sg35
I1
sg611
I2
sVphonology
p2353
I2
sg361
I2
sVpragmatics
p2354
I2
sg1640
I2
ssVethics
p2355
g2
(g3
tp2356
Rp2357
g318
I1
sVecology
p2358
I6
sg360
I8
sg241
I2
sg114
I3
sVpublic_policy
p2359
I2
sg43
I3
sg756
I10
sg166
I4
sg708
I2
sg89
I1
sg694
I18
sg456
I5
sg680
I2
sg34
I21
sg36
I4
sg587
I14
sg220
I2
sg1547
I2
sg71
I4
ssVindustrial_organization
p2360
g2
(g3
tp2361
Rp2362
g14
I4
sg395
I4
ssVcomputer_architecture
p2363
g2
(g3
tp2364
Rp2365
g259
I6
sVcomputer_architecture
p2366
I22
sVartificial_intelligence
p2367
I4
ssVamerican_studies
p2368
g2
(g3
tp2369
Rp2370
Vcultural_history
p2371
I2
sVhistory
p2372
I6
sVhumanities
p2373
I2
ssVcommunity_psychology
p2374
g2
(g3
tp2375
Rp2376
g470
I4
ssVpolymer_science
p2377
g2
(g3
tp2378
Rp2379
g196
I8
sg440
I16
sg211
I4
sVphysical_chemistry
p2380
I8
ssVcosmology
p2381
g2
(g3
tp2382
Rp2383
g6
I4
sg359
I8
sg153
I8
sVprobability
p2384
I6
sg453
I46
sVphilosophy
p2385
I18
sVanalysis
p2386
I4
sVcosmology
p2387
I4
sg599
I4
sg43
I2
sg167
I2
sg54
I10
sg1547
I8
sg643
I2
ssVpaleobiology
p2388
g2
(g3
tp2389
Rp2390
g89
I4
sg1236
I4
ssVpublic_administration
p2391
g2
(g3
tp2392
Rp2393
Vpublic_administration
p2394
I4
sg222
I4
sg369
I4
ssValgorithms
p2395
g2
(g3
tp2396
Rp2397
g725
I1
sg166
I2
sVmotor_control
p2398
I2
sg22
I4
sValgorithms
p2399
I5
sg36
I6
ssVapplied_statistics
p2400
g2
(g3
tp2401
Rp2402
Vnumerical_analysis
p2403
I2
sg544
I2
ssVengineering_mechanics
p2404
g2
(g3
tp2405
Rp2406
Vfluid_mechanics
p2407
I2
ssVset_theory
p2408
g2
(g3
tp2409
Rp2410
g24
I4
sg383
I4
sVepistemology
p2411
I4
sg71
I4
ssVchemistry
p2412
g2
(g3
tp2413
Rp2414
g329
I12
sg1960
I4
sVchemical_engineering
p2415
I4
sVcondensed_matter_physics
p2416
I2
sVenvironmental_sciences
p2417
I2
sVendocrinology
p2418
I12
sVmaterials_science
p2419
I4
sVlife_science
p2420
I8
sVmechanical_engineering
p2421
I4
sg1962
I8
sVgenetics
p2422
I4
sVsocial_science
p2423
I6
sg1216
I4
sVmedicinal_chemistry
p2424
I4
sVinorganic_chemistry
p2425
I24
sVpharmaceutics
p2426
I2
sg602
I2
sg2209
I10
sg572
I2
sVoceanography
p2427
I14
sVanalytical_chemistry
p2428
I24
sg114
I1
sg242
I16
sVphilosophy_of_science
p2429
I4
sValgebra
p2430
I20
sg204
I20
sVmetallurgy
p2431
I12
sg468
I4
sg335
I2
sVmusic
p2432
I18
sg626
I8
sVmathematics
p2433
I14
sg495
I8
sVnuclear_physics
p2434
I2
sVphysical_science
p2435
I12
sg1259
I4
sVphysical_chemistry
p2436
I12
sVcomputer_science
p2437
I4
sg801
I16
sg876
I4
sVimmunology
p2438
I6
sg936
I8
sg1756
I2
sVorganic_chemistry
p2439
I40
sVquantum_physics
p2440
I2
sg519
I6
sg1314
I4
sg1041
I4
sg339
I2
sVepidemiology
p2441
I28
sg560
I1
sVneuroscience
p2442
I6
sVpolitical_science
p2443
I6
sVmanufacturing
p2444
I2
sVtransport_phenomena
p2445
I2
sg603
I42
sg368
I2
sg450
I8
sVmolecular_biology
p2446
I4
sVcell_biology
p2447
I14
sg234
I8
sg706
I4
sg311
I12
sg237
I4
sg1847
I2
sVchemistry
p2448
I8
sg95
I14
sg520
I4
ssVinorganic_chemistry
p2449
g2
(g3
tp2450
Rp2451
g862
I4
sg79
I36
ss.