(dp0
Vregional_language
p1
ccollections
defaultdict
p2
(c__builtin__
int
p3
tp4
Rp5
Vlanguage
p6
I3
ssVmicroorganism
p7
g2
(g3
tp8
Rp9
Vecology
p10
I2
sVdna
p11
I110
sVmicroorganism
p12
I4
sVbiochemistry
p13
I8
sVenzyme
p14
I10
sVgenetics
p15
I8
ssVinformation_science
p16
g2
(g3
tp17
Rp18
Vlinguistics
p19
I2
sVbiology
p20
I8
sg10
I4
sVpsychology
p21
I6
sVinformation_science
p22
I2
sVgeology
p23
I4
sVscience
p24
I2
sVmineralogy
p25
I4
sVpolitical_science
p26
I4
sVsociology
p27
I4
sVgeodesy
p28
I4
sVeconomics
p29
I6
sVzoology
p30
I4
sVmathematics
p31
I2
sVsoil_science
p32
I4
sVchemistry
p33
I4
sVphilosophy
p34
I4
sVhistory
p35
I6
ssVbotany
p36
g2
(g3
tp37
Rp38
Vmeteorology
p39
I8
sVlinguistics
p40
I6
sVbiology
p41
I72
sg10
I18
sVgenetics
p42
I5
sVpharmacology
p43
I8
sVbotany
p44
I10
sVgeography
p45
I2
sVscience
p46
I36
sVgeology
p47
I2
sVplant_taxonomy
p48
I8
sVsociology
p49
I2
sVzoology
p50
I8
sVcytology
p51
I8
sVagronomy
p52
I4
sVchemistry
p53
I8
sVphilosophy
p54
I2
sVhistory
p55
I4
ssVgeopolitics
p56
g2
(g3
tp57
Rp58
Veconomics
p59
I22
ssVapplied_sciences
p60
g2
(g3
tp61
Rp62
g20
I4
sVastronomy
p63
I2
sVhydrology
p64
I2
sVpharmacology
p65
I4
sVgeology
p66
I2
sg24
I6
sg29
I4
sVindustrial_chemistry
p67
I4
sVsocial_sciences
p68
I2
sVgeophysics
p69
I4
sg28
I4
sVapplied_sciences
p70
I1
sVzoology
p71
I2
sVmathematics
p72
I2
sVelectronics
p73
I2
sg33
I2
ssVcartography
p74
g2
(g3
tp75
Rp76
Vcartography
p77
I4
sVpsychology
p78
I4
sVlanguage
p79
I4
sg46
I4
sg39
I8
sVgeography
p80
I8
sg54
I4
sg55
I2
ssVastronautics
p81
g2
(g3
tp82
Rp83
Vaerodynamics
p84
I2
ssVeuropean_language
p85
g2
(g3
tp86
Rp87
Vlinguistics
p88
I2
sVarchaeology
p89
I2
sVlanguage
p90
I7
sVhistory
p91
I2
ssVstem_cell
p92
g2
(g3
tp93
Rp94
Vlinguistics
p95
I8
sVdna
p96
I6
sVstem_cell
p97
I2
ssVionising_radiation
p98
g2
(g3
tp99
Rp100
Vmetrology
p101
I2
ssVliving_language
p102
g2
(g3
tp103
Rp104
Vlanguage
p105
I8
ssVethics
p106
g2
(g3
tp107
Rp108
g41
I2
sVecology
p109
I6
sg42
I8
sVpsychology
p110
I2
sg46
I21
sVphilosophy
p111
I10
sg49
I2
sVmathematics
p112
I4
sVethics
p113
I14
sVchemistry
p114
I2
sVhistory
p115
I4
ssVgeography
p116
g2
(g3
tp117
Rp118
Vbotany
p119
I2
sVcartography
p120
I8
sVmineralogy
p121
I4
sVgeopolitics
p122
I4
sVhistorical_geography
p123
I4
sVecology
p124
I4
sVpolitical_geography
p125
I8
sVgeography
p126
I20
sVlinguistics
p127
I1
sVsociology
p128
I12
sVoceanography
p129
I4
sVpsychology
p130
I4
sVcultural_geography
p131
I8
sVmeteorology
p132
I2
sVeconomic_geography
p133
I12
sVmathematics
p134
I2
sVbiology
p135
I4
sVgeology
p136
I4
sVsoil_type
p137
I6
sVphilosophy
p138
I8
sVpolitical_science
p139
I4
sVsocial_sciences
p140
I8
sVhuman_geography
p141
I8
sVethics
p142
I2
sVastronomy
p143
I4
sVclimatology
p144
I2
sVlanguage
p145
I8
sVscience
p146
I90
sVeconomics
p147
I8
sVgeomorphology
p148
I20
sVchemistry
p149
I20
sVarchaeology
p150
I4
sVhistory
p151
I12
ssVlinguistics
p152
g2
(g3
tp153
Rp154
Vlinguistics
p155
I8
sVsociology
p156
I12
sVgenetics
p157
I8
sVpsychology
p158
I8
sVlanguage
p159
I42
sVscience
p160
I23
sVphilosophy
p161
I4
sVbilingualism
p162
I4
sVlanguage_policy
p163
I4
sVethnography
p164
I4
sVmultilingualism
p165
I12
sVmathematics
p166
I16
sg45
I1
sVpsychoanalysis
p167
I4
sg150
I8
sg115
I12
ssVastronomy
p168
g2
(g3
tp169
Rp170
Vbiology
p171
I8
sVchemistry
p172
I12
sVpsychology
p173
I4
sg136
I10
sVscience
p174
I8
sVeconomics
p175
I8
sVastronomy
p176
I58
sVcosmology
p177
I16
sVspace_science
p178
I4
sVsocial_sciences
p179
I2
sVgeophysics
p180
I12
sVmathematics
p181
I17
sVhistory
p182
I4
sVoptics
p183
I3
sVarchaeology
p184
I8
sg138
I12
sVgeography
p185
I4
ssVoceanography
p186
g2
(g3
tp187
Rp188
Vbiology
p189
I14
sg10
I4
sVoceanography
p190
I4
sVgeology
p191
I16
sg46
I4
sVmeteorology
p192
I8
sVgeodesy
p193
I4
sg112
I4
sg114
I4
sg45
I4
ssVanalytical_chemistry
p194
g2
(g3
tp195
Rp196
Vthermodynamics
p197
I4
sVspectrometry
p198
I4
sVoptics
p199
I2
ssVneurobiology
p200
g2
(g3
tp201
Rp202
g46
I8
sg20
I16
sVgenetics
p203
I4
sVelectrochemistry
p204
I2
ssVmineralogy
p205
g2
(g3
tp206
Rp207
Vgeology
p208
I30
sVpetrology
p209
I4
sg46
I14
sVgeochemistry
p210
I4
sg180
I2
sg33
I12
sVhistory
p211
I4
ssVspace_science
p212
g2
(g3
tp213
Rp214
g23
I4
sVmeteorology
p215
I4
sVastronautics
p216
I6
sVastronomy
p217
I4
sVlife_sciences
p218
I2
sg35
I4
ssVthermodynamics
p219
g2
(g3
tp220
Rp221
g41
I2
sVnuclear_physics
p222
I2
sVbiochemistry
p223
I4
sg46
I9
sg175
I8
sg210
I4
sg114
I7
ssVenzyme
p224
g2
(g3
tp225
Rp226
Vbiology
p227
I8
sVdna
p228
I160
sVmicroorganism
p229
I34
sVbiochemistry
p230
I2
sg46
I2
sVenzyme
p231
I5
sVatom
p232
I2
sg53
I12
ssVsoil_chemistry
p233
g2
(g3
tp234
Rp235
g33
I4
sg25
I4
ssVelectrochemistry
p236
g2
(g3
tp237
Rp238
g114
I8
sVneurobiology
p239
I2
ssVplasma_physics
p240
g2
(g3
tp241
Rp242
Vnuclear_physics
p243
I2
sVoptics
p244
I2
sVseismology
p245
I2
ssVpersonality
p246
g2
(g3
tp247
Rp248
Vbiology
p249
I4
sVphilosophy
p250
I8
sVdna
p251
I4
sVpsychology
p252
I48
sVlanguage
p253
I24
sg146
I8
sVsexuality
p254
I4
sVchemistry
p255
I8
sVhistory
p256
I4
sVecology
p257
I4
sVhistorical_figure
p258
I8
sVgenetics
p259
I12
sVelectronics
p260
I8
sVgeography
p261
I8
sVpsychoanalysis
p262
I16
sVpersonality
p263
I410
ssVbioclimatology
p264
g2
(g3
tp265
Rp266
Vecology
p267
I2
ssVpharmacology
p268
g2
(g3
tp269
Rp270
g171
I4
sg78
I26
sVpharmacology
p271
I6
sg46
I112
sVphilosophy
p272
I4
sVchemistry
p273
I4
sg211
I4
ssVgeology
p274
g2
(g3
tp275
Rp276
Vbotany
p277
I4
sVsedimentology
p278
I8
sg25
I8
sVpetrology
p279
I20
sVvolcanology
p280
I4
sVzoology
p281
I2
sg45
I4
sVoceanography
p282
I16
sVgeochemistry
p283
I4
sg193
I8
sg112
I2
sVbiology
p284
I4
sVgeology
p285
I12
sVgeophysics
p286
I8
sVseismology
p287
I12
sVethnography
p288
I4
sVdna
p289
I8
sVhydrogeology
p290
I4
sVastronomy
p291
I10
sVclimatology
p292
I4
sVhydrology
p293
I4
sVscience
p294
I336
sg192
I8
sVsoil_analysis
p295
I4
sVgeomorphology
p296
I6
sg172
I2
sg150
I2
sg55
I8
ssVbilingualism
p297
g2
(g3
tp298
Rp299
Vlinguistics
p300
I11
sg49
I2
sVlanguage
p301
I8
ssVethnology
p302
g2
(g3
tp303
Rp304
g281
I4
sg46
I12
sVethnology
p305
I4
sg211
I8
sVgeography
p306
I6
ssVeugenics
p307
g2
(g3
tp308
Rp309
g20
I4
sVsociology
p310
I4
sVscience
p311
I4
sg138
I1
sVeugenics
p312
I32
sVmathematics
p313
I4
sVhistory
p314
I26
ssVsocial_sciences
p315
g2
(g3
tp316
Rp317
g10
I6
sVinformation_science
p318
I2
sVancient_history
p319
I2
sVagronomy
p320
I2
sg185
I68
sVlinguistics
p321
I28
sg310
I262
sg282
I2
sg110
I168
sg313
I4
sVcriminology
p322
I18
sVrural_sociology
p323
I2
sg20
I8
sVgeology
p324
I2
sg111
I52
sVpolitical_science
p325
I108
sVsocial_sciences
p326
I4
sVethnography
p327
I20
sVhuman_geography
p328
I12
sg142
I8
sVethnology
p329
I4
sg292
I2
sg253
I10
sg24
I6
sVeconomics
p330
I238
sVmodern_history
p331
I2
sVcontemporary_history
p332
I4
sg33
I2
sVarchaeology
p333
I20
sg115
I122
ssVgeophysics
p334
g2
(g3
tp335
Rp336
Vmeteorology
p337
I4
sVhydrology
p338
I2
sVgeology
p339
I8
sg209
I2
sg46
I41
sVmineralogy
p340
I2
sVvolcanology
p341
I4
sg210
I2
sg69
I4
sg193
I4
sVatom
p342
I4
sVoceanography
p343
I4
sg291
I4
sVseismology
p344
I12
ssVhistorical_figure
p345
g2
(g3
tp346
Rp347
Vhistorical_figure
p348
I4
ssVminority_language
p349
g2
(g3
tp350
Rp351
g159
I30
sVminority_language
p352
I12
ssVhydrogeology
p353
g2
(g3
tp354
Rp355
g46
I12
sg193
I8
sg339
I6
ssVlife_sciences
p356
g2
(g3
tp357
Rp358
Vbotany
p359
I8
sg20
I56
sg10
I2
sg15
I10
sVneurobiology
p360
I4
sg65
I10
sVgeology
p361
I2
sg13
I48
sg24
I30
sg29
I4
sg21
I6
sg27
I4
sVzoology
p362
I10
sVchemistry
p363
I8
sg185
I2
ssVcytology
p364
g2
(g3
tp365
Rp366
Vbotany
p367
I8
sg41
I4
sg15
I4
sg46
I8
ssVphysical_sciences
p368
g2
(g3
tp369
Rp370
Vbotany
p371
I2
sVecology
p372
I2
sVmineralogy
p373
I4
sVpetrology
p374
I4
sVgeography
p375
I2
sVearth_sciences
p376
I22
sg13
I2
sVgeochemistry
p377
I2
sg313
I26
sg73
I4
sg20
I12
sg23
I10
sVgeophysics
p378
I6
sVastronomy
p379
I32
sVlife_sciences
p380
I2
sg33
I96
sg24
I16
sg215
I2
sg177
I2
sVclimatology
p381
I2
sg244
I2
sVarchaeology
p382
I2
sg35
I6
ssVscience
p383
g2
(g3
tp384
Rp385
Vhuman_geography
p386
I8
sVstem_cell
p387
I12
sVbiometrics
p388
I8
sVhydrogeology
p389
I12
sg185
I198
sg321
I66
sVanalytical_chemistry
p390
I4
sVlaser_physics
p391
I6
sVspace_science
p392
I8
sVthermodynamics
p393
I10
sVenzyme
p394
I2
sVpersonality
p395
I24
sVindustrial_chemistry
p396
I8
sVpharmacology
p397
I106
sg23
I238
sVeugenics
p398
I132
sVsocial_sciences
p399
I38
sVradiobiology
p400
I4
sVapplied_sciences
p401
I2
sVmodern_history
p402
I2
sg183
I12
sg10
I116
sVaerodynamics
p403
I30
sVhistology
p404
I16
sVancient_history
p405
I4
sVcriminology
p406
I10
sg310
I206
sg15
I242
sg110
I350
sVplant_taxonomy
p407
I4
sVparasitology
p408
I18
sg283
I12
sg73
I54
sVnuclear_physics
p409
I2
sg20
I1122
sVpolitical_science
p410
I30
sg327
I16
sg282
I70
sVelectrotechnology
p411
I2
sVphotochemistry
p412
I10
sg329
I12
sVhydrology
p413
I34
sVlanguage
p414
I38
sg330
I142
sVgeomorphology
p415
I22
sg371
I112
sVmicroorganism
p416
I12
sVinformation_science
p417
I20
sVmineralogy
p418
I4
sVcartography
p419
I14
sVcybernetics
p420
I48
sg30
I74
sVdna
p421
I12
sVneurobiology
p422
I4
sVeconomic_geography
p423
I4
sVplasma_physics
p424
I4
sVgeophysics
p425
I40
sVatom
p426
I18
sVsoil_science
p427
I2
sVlife_sciences
p428
I8
sVcytology
p429
I8
sVscience
p430
I124
sg215
I116
sVelectrochemistry
p431
I8
sVsexuality
p432
I8
sVphilosophy_of_science
p433
I4
sg292
I24
sg115
I182
sg209
I8
sVvolcanology
p434
I6
sVpolitical_geography
p435
I6
sg320
I8
sVpsychoanalysis
p436
I4
sVearth_sciences
p437
I6
sg101
I4
sg13
I204
sg28
I12
sg313
I626
sg111
I140
sVseismology
p438
I18
sg142
I10
sg379
I492
sVphysical_sciences
p439
I18
sVacoustics
p440
I4
sg177
I62
sg33
I1242
sg333
I74
ssVmeteorology
p441
g2
(g3
tp442
Rp443
Vclimatology
p444
I4
sg189
I12
sg138
I4
sVoceanography
p445
I2
sg339
I8
sg311
I60
sVmeteorology
p446
I22
sVmathematics
p447
I8
sg338
I2
sg182
I4
sg45
I2
ssVmodern_history
p448
g2
(g3
tp449
Rp450
Vlanguage
p451
I1
sVancient_history
p452
I4
sg55
I28
ssVsexuality
p453
g2
(g3
tp454
Rp455
Vsociology
p456
I4
sVgenetics
p457
I12
sg21
I4
sg301
I136
sVpolitical_sociology
p458
I4
sg138
I8
sVpolitical_science
p459
I4
sVsexuality
p460
I462
sVchemistry
p461
I4
sg262
I12
sg115
I4
ssVcybernetics
p462
g2
(g3
tp463
Rp464
Vlanguage
p465
I4
sg46
I4
sVphilosophy
p466
I1
sVcybernetics
p467
I6
sg313
I1
sVpsychoanalysis
p468
I4
ssVspectrometry
p469
g2
(g3
tp470
Rp471
Vbiochemistry
p472
I6
sVspectrometry
p473
I40
sg251
I4
sVelectrochemistry
p474
I6
sg114
I6
ssVoptics
p475
g2
(g3
tp476
Rp477
Vastronomy
p478
I3
sVscience
p479
I25
sg138
I1
sVmathematics
p480
I5
sVelectronics
p481
I6
sg114
I4
sVoptics
p482
I140
sg35
I4
ssVhistory
p483
g2
(g3
tp484
Rp485
Vbotany
p486
I6
sVprehistory
p487
I8
sVmineralogy
p488
I4
sg209
I4
sVhuman_geography
p489
I4
sVcartography
p490
I2
sVcybernetics
p491
I8
sVancient_history
p492
I8
sVzoology
p493
I38
sg167
I4
sg185
I28
sg155
I4
sVecology
p494
I4
sVsociology
p495
I4
sg96
I22
sVpsychology
p496
I30
sVbiochemistry
p497
I4
sVworld_history
p498
I16
sVastronomy
p499
I46
sVmedieval_history
p500
I28
sg210
I4
sg193
I2
sVmathematics
p501
I3
sVcriminology
p502
I4
sVpersonality
p503
I24
sVbiology
p504
I4
sVhistorical_geography
p505
I4
sVpharmacology
p506
I2
sVgeology
p507
I4
sVphilosophy
p508
I4
sVeugenics
p509
I20
sVethnography
p510
I4
sVatom
p511
I12
sVgenetics
p512
I11
sVethics
p513
I4
sVpolitical_science
p514
I22
sg305
I8
sg159
I72
sg24
I12
sVeconomics
p515
I8
sVmodern_history
p516
I8
sVcosmology
p517
I2
sg432
I4
sVcontemporary_history
p518
I4
sVphilosophy_of_science
p519
I4
sg33
I4
sg333
I12
sVearth_sciences
p520
I2
sVhistory
p521
I102
ssVecology
p522
g2
(g3
tp523
Rp524
g367
I4
sVeconomics
p525
I24
sVmicroorganism
p526
I2
sVecology
p527
I2
sg281
I14
sg45
I4
sVhydrology
p528
I12
sg445
I2
sg158
I8
sVparasitology
p529
I2
sVmathematics
p530
I4
sVbioclimatology
p531
I4
sg20
I4
sg136
I12
sg54
I22
sg457
I8
sVethics
p532
I2
sVcytology
p533
I12
sVlanguage
p534
I4
sg24
I32
sg39
I8
sVcosmology
p535
I4
sVsexuality
p536
I4
sg33
I4
sg382
I4
sVhistory
p537
I8
ssVlanguage_policy
p538
g2
(g3
tp539
Rp540
Vmultilingualism
p541
I3
ssVpetrology
p542
g2
(g3
tp543
Rp544
g340
I4
sg46
I8
sVgeology
p545
I20
sVvolcanology
p546
I4
sg210
I4
sg180
I2
sg278
I4
sg211
I4
ssVaerodynamics
p547
g2
(g3
tp548
Rp549
Vaerodynamics
p550
I8
sVastronautics
p551
I2
ssVbiometrics
p552
g2
(g3
tp553
Rp554
Vdna
p555
I4
ssVzoology
p556
g2
(g3
tp557
Rp558
g39
I8
sg20
I4
sg10
I4
sg15
I8
sg191
I4
sg223
I10
sVscience
p559
I4
sg175
I8
sVethnology
p560
I4
sVparasitology
p561
I4
sg49
I2
sVzoology
p562
I12
sg112
I1
sg115
I6
ssVvolcanology
p563
g2
(g3
tp564
Rp565
g46
I4
sg41
I4
sg210
I4
sg180
I6
sg339
I8
ssVprehistory
p566
g2
(g3
tp567
Rp568
g457
I8
sVlanguage
p569
I2
sVpolitical_geography
p570
I4
sg211
I6
sg184
I16
sVgeography
p571
I4
ssVhistology
p572
g2
(g3
tp573
Rp574
g46
I20
sVbiology
p575
I8
sVcytology
p576
I4
sVhistology
p577
I12
ssVancient_history
p578
g2
(g3
tp579
Rp580
Vhistory
p581
I10
sVgeography
p582
I6
ssVeconomics
p583
g2
(g3
tp584
Rp585
g277
I12
sg189
I2
sVeconomics
p586
I8
sg110
I8
sg253
I1
sVscience
p587
I16
sg111
I8
sVpolitical_science
p588
I4
sg53
I16
sVsocial_sciences
p589
I2
sg310
I4
sVecology
p590
I4
sVethnography
p591
I4
sg501
I4
sg582
I12
sg150
I40
sg115
I12
ssVagronomy
p592
g2
(g3
tp593
Rp594
Vscience
p595
I6
sg367
I4
ssVpsychoanalysis
p596
g2
(g3
tp597
Rp598
Vsociology
p599
I4
sVpsychology
p600
I38
sg46
I4
sg111
I2
sVpsychoanalysis
p601
I8
sg35
I4
ssVcriminology
p602
g2
(g3
tp603
Rp604
g49
I4
sg158
I4
sg46
I6
sg29
I4
sVcriminology
p605
I4
sg35
I4
ssVbehavioural_sciences
p606
g2
(g3
tp607
Rp608
g20
I2
sVsociology
p609
I8
sVpsychology
p610
I10
sg159
I2
sg330
I6
sVpolitical_science
p611
I2
sVcriminology
p612
I2
sg35
I2
ssVsociology
p613
g2
(g3
tp614
Rp615
g367
I2
sg281
I2
sg185
I4
sg300
I3
sVsociology
p616
I12
sVpsychology
p617
I8
sVurban_sociology
p618
I4
sg166
I1
sVcriminology
p619
I58
sVrural_sociology
p620
I4
sg189
I26
sg161
I4
sVbilingualism
p621
I2
sVpolitical_science
p622
I4
sg510
I2
sg532
I2
sg143
I12
sVlanguage
p623
I4
sg24
I4
sg330
I4
sVsexuality
p624
I6
sVpolitical_sociology
p625
I6
sg172
I2
sg581
I4
ssVgenetics
p626
g2
(g3
tp627
Rp628
g371
I5
sg171
I4
sg10
I4
sg96
I8
sVbiochemistry
p629
I4
sg559
I12
sg138
I4
sVeugenics
p630
I4
sg114
I16
sg529
I1
sVsociology
p631
I8
sVethnography
p632
I8
sVstem_cell
p633
I6
sg281
I7
sVgenetics
p634
I140
sg532
I10
sVpersonality
p635
I8
sVarchaeology
p636
I4
sg182
I8
ssVpsychology
p637
g2
(g3
tp638
Rp639
Vcartography
p640
I2
sVecology
p641
I4
sVpsychoanalysis
p642
I12
sg322
I4
sVlinguistics
p643
I14
sVsociology
p644
I20
sVpsychology
p645
I26
sVneurobiology
p646
I4
sg501
I3
sg395
I8
sVbiology
p647
I8
sg506
I8
sg111
I8
sVpolitical_science
p648
I8
sVsocial_sciences
p649
I2
sVethics
p650
I4
sg159
I20
sg24
I16
sVeconomics
p651
I4
sVsexuality
p652
I10
sVphilosophy_of_science
p653
I8
sg149
I2
sg150
I80
sg115
I16
ssVbiochemistry
p654
g2
(g3
tp655
Rp656
Vmathematics
p657
I4
sg171
I12
sg289
I2
sVpharmacology
p658
I16
sVbiochemistry
p659
I8
sVscience
p660
I278
sg529
I2
sVthermodynamics
p661
I4
sVenzyme
p662
I8
sVstem_cell
p663
I4
sg281
I10
sg259
I12
sg33
I16
ssVworld_history
p664
g2
(g3
tp665
Rp666
g24
I4
sg256
I4
ssVmedieval_history
p667
g2
(g3
tp668
Rp669
g35
I8
ssVparasitology
p670
g2
(g3
tp671
Rp672
g223
I2
sg46
I14
sg41
I4
sg267
I2
sg42
I1
ssVgeochemistry
p673
g2
(g3
tp674
Rp675
g339
I34
sg209
I4
sg46
I42
sg340
I4
sVthermodynamics
p676
I4
sg341
I4
sg180
I2
sg114
I2
sg150
I2
sVhistory
p677
I4
ssVgeodesy
p678
g2
(g3
tp679
Rp680
g445
I4
sg339
I8
sg46
I12
sg180
I6
sg287
I8
sg112
I2
sVhydrogeology
p681
I8
sg211
I2
ssVmultilingualism
p682
g2
(g3
tp683
Rp684
g300
I1
ssVmathematics
p685
g2
(g3
tp686
Rp687
g651
I8
sVaerodynamics
p688
I4
sVcartography
p689
I8
sVecology
p690
I4
sg281
I1
sg45
I2
sg643
I12
sVsociology
p691
I8
sg445
I1
sVpsychology
p692
I4
sg13
I16
sg193
I4
sVmathematics
p693
I4
sVelectronics
p694
I2
sg20
I32
sVgeology
p695
I4
sVphilosophy
p696
I8
sVpolitical_science
p697
I6
sg69
I8
sg232
I1
sg532
I4
sg379
I8
sVphysical_sciences
p698
I2
sVlanguage
p699
I12
sg24
I8
sg39
I8
sVgeographical_information_system
p700
I2
sVcosmology
p701
I12
sVcybernetics
p702
I1
sg33
I20
sVoptics
p703
I5
sVhistory
p704
I8
ssVelectronics
p705
g2
(g3
tp706
Rp707
g189
I12
sg411
I1
sg623
I3
sg311
I22
sVacoustics
p708
I2
sg166
I2
sVelectronics
p709
I8
sg53
I8
sVoptics
p710
I2
sVgeography
p711
I12
ssVrural_sociology
p712
g2
(g3
tp713
Rp714
Veconomics
p715
I4
ssVbiology
p716
g2
(g3
tp717
Rp718
g371
I80
sg10
I60
sVmicroorganism
p719
I4
sg341
I4
sVhistology
p720
I8
sVstem_cell
p721
I2
sg30
I80
sVagronomy
p722
I4
sVgeography
p723
I20
sVsociology
p724
I20
sg15
I96
sg110
I16
sVneurobiology
p725
I16
sg13
I32
sg39
I8
sg529
I4
sVspace_science
p726
I4
sg661
I4
sVenzyme
p727
I22
sg313
I4
sVbiology
p728
I8
sg43
I4
sVgeology
p729
I4
sVphilosophy
p730
I4
sg400
I4
sg96
I8
sg532
I2
sg478
I12
sg33
I4
sVcytology
p731
I4
sg301
I4
sVoceanography
p732
I14
sVscience
p733
I14
sVeconomics
p734
I2
sVcosmology
p735
I4
sVphilosophy_of_science
p736
I4
sVclimatology
p737
I4
sg150
I2
sg115
I4
ssVphilosophy
p738
g2
(g3
tp739
Rp740
Vbotany
p741
I2
sg10
I22
sVcybernetics
p742
I4
sg601
I2
sVgeography
p743
I8
sg643
I8
sVsociology
p744
I6
sg251
I4
sg110
I40
sg192
I4
sVastronomy
p745
I8
sVmathematics
p746
I32
sVcriminology
p747
I4
sg504
I4
sg208
I8
sVphilosophy
p748
I14
sg509
I4
sg42
I1
sg142
I46
sVpolitical_science
p749
I8
sg159
I24
sg24
I28
sg734
I4
sVmodern_history
p750
I4
sVcosmology
p751
I8
sVsexuality
p752
I16
sVphilosophy_of_science
p753
I56
sg53
I6
sVoptics
p754
I1
sg115
I32
ssVpolitical_science
p755
g2
(g3
tp756
Rp757
g127
I4
sg724
I4
sg617
I16
sVscience
p758
I4
sg330
I10
sVpolitical_science
p759
I4
sVpersonality
p760
I2
sg53
I4
sg250
I6
sg115
I26
ssVseismology
p761
g2
(g3
tp762
Rp763
g338
I4
sg46
I10
sg180
I12
sg193
I8
sg339
I4
ssVethnography
p764
g2
(g3
tp765
Rp766
g300
I1
sg49
I2
sg339
I2
sg46
I6
sVethnography
p767
I20
sg113
I2
sg150
I4
sVhistory
p768
I4
ssVphilosophy_of_science
p769
g2
(g3
tp770
Rp771
g127
I4
sg20
I8
sg29
I8
sg21
I8
sVscience
p772
I4
sg111
I20
sg177
I4
sg115
I8
ssVdna
p773
g2
(g3
tp774
Rp775
g41
I10
sg259
I34
sVmicroorganism
p776
I4
sVlanguage
p777
I12
sg659
I2
sVscience
p778
I2
sVenzyme
p779
I126
sg577
I8
sVdna
p780
I1396
sVelectronics
p781
I4
sVhistory
p782
I20
ssVregional_geography
p783
g2
(g3
tp784
Rp785
Voceanography
p786
I4
ssVelectrotechnology
p787
g2
(g3
tp788
Rp789
g46
I2
sg694
I4
ssVmetrology
p790
g2
(g3
tp791
Rp792
Vscience
p793
I4
sg631
I8
sVmetrology
p794
I10
sg35
I8
ssVphotochemistry
p795
g2
(g3
tp796
Rp797
g46
I16
sg114
I6
ssVfundamental_particle
p798
g2
(g3
tp799
Rp800
g426
I4
ssVclimatology
p801
g2
(g3
tp802
Rp803
g338
I2
sg339
I4
sg46
I14
sg192
I4
sVgeophysics
p804
I8
sg144
I8
sg45
I2
ssVhydrology
p805
g2
(g3
tp806
Rp807
g372
I8
sVhydrology
p808
I6
sg339
I4
sg46
I48
sg192
I2
sg180
I2
sg287
I4
sVgeomorphology
p809
I2
sg343
I4
sg290
I8
sg444
I2
sg184
I8
ssVlanguage
p810
g2
(g3
tp811
Rp812
Vregional_language
p813
I2
sVecology
p814
I8
sVlanguage_policy
p815
I4
sVinformation_science
p816
I4
sg741
I12
sVminority_language
p817
I20
sVeuropean_language
p818
I36
sVzoology
p819
I4
sVliving_language
p820
I2
sg262
I12
sg126
I8
sg321
I24
sVsociology
p821
I2
sg780
I496
sg110
I2
sVneurobiology
p822
I8
sg165
I8
sg313
I18
sg694
I6
sVpersonality
p823
I20
sg20
I88
sg191
I8
sg111
I24
sVbilingualism
p824
I4
sVpolitical_science
p825
I2
sVsocial_sciences
p826
I1
sVatom
p827
I24
sVgenetics
p828
I6
sg379
I16
sVlanguage
p829
I242
sg430
I8
sg330
I1
sVsexuality
p830
I12
sVchemistry
p831
I58
sg184
I10
sg115
I142
ssVsedimentology
p832
g2
(g3
tp833
Rp834
g209
I4
sg339
I18
ssVacoustics
p835
g2
(g3
tp836
Rp837
g46
I11
ssVhuman_geography
p838
g2
(g3
tp839
Rp840
Veconomics
p841
I4
sVcultural_geography
p842
I4
sVsocial_sciences
p843
I4
sg582
I4
sg34
I4
sVhistory
p844
I8
ssVcultural_geography
p845
g2
(g3
tp846
Rp847
Vcartography
p848
I4
ssVgeographical_information_system
p849
g2
(g3
tp850
Rp851
Varchaeology
p852
I4
ssVcosmology
p853
g2
(g3
tp854
Rp855
g171
I8
sg267
I8
sg158
I8
sg311
I46
sVphilosophy
p856
I18
sVcosmology
p857
I4
sg447
I4
sg379
I6
sg581
I2
ssVadministrative_science
p858
g2
(g3
tp859
Rp860
Veconomics
p861
I4
ssVatom
p862
g2
(g3
tp863
Rp864
Vfundamental_particle
p865
I4
sg96
I12
sg488
I8
sg629
I4
sg46
I2
sVenzyme
p866
I2
sVatom
p867
I7016
sg112
I1
sVchemistry
p868
I2
ssVgeomorphology
p869
g2
(g3
tp870
Rp871
g46
I14
sg338
I2
sg339
I4
ssVearth_sciences
p872
g2
(g3
tp873
Rp874
g20
I2
sVclimatology
p875
I4
sg282
I6
sg23
I26
sg595
I2
sg215
I6
sVpolitical_science
p876
I2
sg373
I2
sVchemistry
p877
I2
sg377
I4
sg425
I4
sg447
I2
sVgeomorphology
p878
I2
sVhydrology
p879
I8
sg379
I2
sVgeography
p880
I4
ssVchemistry
p881
g2
(g3
tp882
Rp883
g277
I12
sg590
I4
sVmicroorganism
p884
I14
sg25
I8
sg631
I2
sVdna
p885
I28
sVanalytical_chemistry
p886
I24
sVneurobiology
p887
I8
sg13
I16
sg393
I4
sVenzyme
p888
I90
sg283
I2
sVmathematics
p889
I14
sg260
I16
sVnuclear_physics
p890
I2
sVbiology
p891
I4
sg397
I8
sg507
I2
sg250
I6
sVpolitical_science
p892
I6
sg426
I2
sVgenetics
p893
I4
sg532
I2
sg478
I8
sg617
I2
sVphotochemistry
p894
I4
sVspectrometry
p895
I6
sVhydrology
p896
I12
sg301
I32
sg786
I14
sg24
I8
sg330
I4
sg204
I8
sVphilosophy_of_science
p897
I4
sVchemistry
p898
I8
sg754
I4
sVhistory
p899
I4
ssVarchaeology
p900
g2
(g3
tp901
Rp902
g300
I4
sg171
I2
sg478
I8
sg457
I12
sg78
I4
sg301
I2
sg136
I2
sVscience
p903
I4
sVeconomics
p904
I4
sVprehistory
p905
I12
sg536
I4
sVmodern_history
p906
I4
sg210
I2
sg164
I8
sg50
I8
sg113
I2
sVgeography
p907
I4
sVarchaeology
p908
I12
sg256
I12
ss.